gpasm-1.4.0 #1106 (Oct  6 2014) obj\Debug\mai   2-26-2021  01:02:42         PAGE  1


LOC    OBJECT CODE    LINE  SOURCE TEXT
  VALUE

                      00001 ;--------------------------------------------------------
                      00002 ; File Created by SDCC : free open source ANSI-C Compiler
                      00003 ; Version 3.5.0 #9253 (Jun 20 2015) (MINGW32)
                      00004 ; This file was generated Fri Feb 26 01:02:42 2021
                      00005 ;--------------------------------------------------------
                      00006 ; PIC port for the 14-bit core
                      00007 ;--------------------------------------------------------
                      00008         .file   "main.c"
                      00009         list    p=16f877a
                      00010         radix dec
                      00011         include "p16f877a.inc"
                      00001         LIST
                      00002 
                      00003 ;==========================================================================
                      00004 ; Build date : Aug 07 2014
                      00005 ;  MPASM PIC16F877A processor include
                      00006 ; 
                      00007 ;  (c) Copyright 1999-2014 Microchip Technology, All rights reserved
                      00008 ;==========================================================================
                      00009 
                      00567         LIST
                      00012 ;--------------------------------------------------------
                      00013 ; external declarations
                      00014 ;--------------------------------------------------------
  0000                00015         extern  __print_format
  0000                00016         extern  _printf_small
  0000                00017         extern  _printf
  0000                00018         extern  _vprintf
  0000                00019         extern  _sprintf
  0000                00020         extern  _vsprintf
  0000                00021         extern  _puts
  0000                00022         extern  _gets
  0000                00023         extern  _getchar
  0000                00024         extern  _putchar
  0000                00025         extern  _calloc
  0000                00026         extern  _malloc
  0000                00027         extern  _realloc
  0000                00028         extern  _free
  0000                00029         extern  _abs
  0000                00030         extern  _labs
  0000                00031         extern  _atof
  0000                00032         extern  _atoi
  0000                00033         extern  _atol
  0000                00034         extern  __uitoa
  0000                00035         extern  __itoa
  0000                00036         extern  __ultoa
  0000                00037         extern  __ltoa
  0000                00038         extern  _rand
  0000                00039         extern  _srand
  0000                00040         extern  __sdcc_gsinit_startup
                      00041 ;--------------------------------------------------------
                      00042 ; global declarations
                      00043 ;--------------------------------------------------------
gpasm-1.4.0 #1106 (Oct  6 2014) obj\Debug\mai   2-26-2021  01:02:42         PAGE  2


LOC    OBJECT CODE    LINE  SOURCE TEXT
  VALUE

  0000                00044         global  _main
                      00045 
  0000                00046         global PSAVE
  0000                00047         global SSAVE
  0000                00048         global WSAVE
  0000                00049         global STK12
  0000                00050         global STK11
  0000                00051         global STK10
  0000                00052         global STK09
  0000                00053         global STK08
  0000                00054         global STK07
  0000                00055         global STK06
  0000                00056         global STK05
  0000                00057         global STK04
  0000                00058         global STK03
  0000                00059         global STK02
  0000                00060         global STK01
  0000                00061         global STK00
                      00062 
                      00063 sharebank udata_ovr 0x0070
0070                  00064 PSAVE   res 1
0071                  00065 SSAVE   res 1
0072                  00066 WSAVE   res 1
0073                  00067 STK12   res 1
0074                  00068 STK11   res 1
0075                  00069 STK10   res 1
0076                  00070 STK09   res 1
0077                  00071 STK08   res 1
0078                  00072 STK07   res 1
0079                  00073 STK06   res 1
007A                  00074 STK05   res 1
007B                  00075 STK04   res 1
007C                  00076 STK03   res 1
007D                  00077 STK02   res 1
007E                  00078 STK01   res 1
007F                  00079 STK00   res 1
                      00080 
                      00081 ;--------------------------------------------------------
                      00082 ; global definitions
                      00083 ;--------------------------------------------------------
                      00084 ;--------------------------------------------------------
                      00085 ; absolute symbol definitions
                      00086 ;--------------------------------------------------------
                      00087 ;--------------------------------------------------------
                      00088 ; compiler-defined variables
                      00089 ;--------------------------------------------------------
                      00090 UDL_main_0      udata
0000                  00091 r0x1195 res     1
0001                  00092 r0x1194 res     1
0002                  00093 r0x1196 res     1
0003                  00094 r0x1197 res     1
0004                  00095 r0x1198 res     1
0005                  00096 r0x1199 res     1
gpasm-1.4.0 #1106 (Oct  6 2014) obj\Debug\mai   2-26-2021  01:02:42         PAGE  3


LOC    OBJECT CODE    LINE  SOURCE TEXT
  VALUE

0006                  00097 r0x119A res     1
0007                  00098 r0x119B res     1
0008                  00099 r0x119C res     1
0009                  00100 r0x119D res     1
000A                  00101 r0x119E res     1
000B                  00102 r0x119F res     1
000C                  00103 r0x11A0 res     1
000D                  00104 r0x11A1 res     1
000E                  00105 r0x11A2 res     1
000F                  00106 r0x11A3 res     1
0010                  00107 r0x11A4 res     1
0011                  00108 r0x11A5 res     1
0012                  00109 r0x11A6 res     1
0013                  00110 r0x11A7 res     1
0014                  00111 r0x11A8 res     1
0015                  00112 r0x11A9 res     1
0016                  00113 r0x11AA res     1
0017                  00114 _main_r_1_28    res     2
0019                  00115 _main_c_1_28    res     2
001B                  00116 _main_matrix_1_28       res     200
00E3                  00117 _main_transpose_1_28    res     200
                      00118 ;--------------------------------------------------------
                      00119 ; initialized data
                      00120 ;--------------------------------------------------------
                      00121 
                      00122 ID_main_0       code
0000                  00123 ___str_0
0000   3445           00124         retlw 0x45 ; 'E'
0001   346E           00125         retlw 0x6e ; 'n'
0002   3474           00126         retlw 0x74 ; 't'
0003   3465           00127         retlw 0x65 ; 'e'
0004   3472           00128         retlw 0x72 ; 'r'
0005   3420           00129         retlw 0x20 ; ' '
0006   3472           00130         retlw 0x72 ; 'r'
0007   346F           00131         retlw 0x6f ; 'o'
0008   3477           00132         retlw 0x77 ; 'w'
0009   3473           00133         retlw 0x73 ; 's'
000A   3420           00134         retlw 0x20 ; ' '
000B   3461           00135         retlw 0x61 ; 'a'
000C   346E           00136         retlw 0x6e ; 'n'
000D   3464           00137         retlw 0x64 ; 'd'
000E   3420           00138         retlw 0x20 ; ' '
000F   3463           00139         retlw 0x63 ; 'c'
0010   346F           00140         retlw 0x6f ; 'o'
0011   3475           00141         retlw 0x75 ; 'u'
0012   346C           00142         retlw 0x6c ; 'l'
0013   3475           00143         retlw 0x75 ; 'u'
0014   346D           00144         retlw 0x6d ; 'm'
0015   346E           00145         retlw 0x6e ; 'n'
0016   3473           00146         retlw 0x73 ; 's'
0017   3420           00147         retlw 0x20 ; ' '
0018   346F           00148         retlw 0x6f ; 'o'
0019   3466           00149         retlw 0x66 ; 'f'
gpasm-1.4.0 #1106 (Oct  6 2014) obj\Debug\mai   2-26-2021  01:02:42         PAGE  4


LOC    OBJECT CODE    LINE  SOURCE TEXT
  VALUE

001A   3420           00150         retlw 0x20 ; ' '
001B   3474           00151         retlw 0x74 ; 't'
001C   3468           00152         retlw 0x68 ; 'h'
001D   3465           00153         retlw 0x65 ; 'e'
001E   3420           00154         retlw 0x20 ; ' '
001F   346D           00155         retlw 0x6d ; 'm'
0020   3461           00156         retlw 0x61 ; 'a'
0021   3474           00157         retlw 0x74 ; 't'
0022   3472           00158         retlw 0x72 ; 'r'
0023   3469           00159         retlw 0x69 ; 'i'
0024   3478           00160         retlw 0x78 ; 'x'
0025   3420           00161         retlw 0x20 ; ' '
0026   340A           00162         retlw 0x0a ; '.'
0027   3400           00163         retlw 0x00 ; '.'
                      00164 
                      00165 ID_main_1       code
0000                  00166 ___str_1
0000   3445           00167         retlw 0x45 ; 'E'
0001   346E           00168         retlw 0x6e ; 'n'
0002   3474           00169         retlw 0x74 ; 't'
0003   3465           00170         retlw 0x65 ; 'e'
0004   3472           00171         retlw 0x72 ; 'r'
0005   3420           00172         retlw 0x20 ; ' '
0006   3474           00173         retlw 0x74 ; 't'
0007   3468           00174         retlw 0x68 ; 'h'
0008   3465           00175         retlw 0x65 ; 'e'
0009   3420           00176         retlw 0x20 ; ' '
000A   3465           00177         retlw 0x65 ; 'e'
000B   346C           00178         retlw 0x6c ; 'l'
000C   3465           00179         retlw 0x65 ; 'e'
000D   346D           00180         retlw 0x6d ; 'm'
000E   3465           00181         retlw 0x65 ; 'e'
000F   346E           00182         retlw 0x6e ; 'n'
0010   3474           00183         retlw 0x74 ; 't'
0011   3473           00184         retlw 0x73 ; 's'
0012   3420           00185         retlw 0x20 ; ' '
0013   346F           00186         retlw 0x6f ; 'o'
0014   3466           00187         retlw 0x66 ; 'f'
0015   3420           00188         retlw 0x20 ; ' '
0016   3474           00189         retlw 0x74 ; 't'
0017   3468           00190         retlw 0x68 ; 'h'
0018   3465           00191         retlw 0x65 ; 'e'
0019   3420           00192         retlw 0x20 ; ' '
001A   3472           00193         retlw 0x72 ; 'r'
001B   346F           00194         retlw 0x6f ; 'o'
001C   3477           00195         retlw 0x77 ; 'w'
001D   3420           00196         retlw 0x20 ; ' '
001E   3425           00197         retlw 0x25 ; '%'
001F   3464           00198         retlw 0x64 ; 'd'
0020   3420           00199         retlw 0x20 ; ' '
0021   3420           00200         retlw 0x20 ; ' '
0022   343A           00201         retlw 0x3a ; ':'
0023   340A           00202         retlw 0x0a ; '.'
gpasm-1.4.0 #1106 (Oct  6 2014) obj\Debug\mai   2-26-2021  01:02:42         PAGE  5


LOC    OBJECT CODE    LINE  SOURCE TEXT
  VALUE

0024   3400           00203         retlw 0x00 ; '.'
                      00204 
                      00205 ID_main_2       code
0000                  00206 ___str_2
0000   3409           00207         retlw 0x09 ; '.'
0001   3400           00208         retlw 0x00 ; '.'
                      00209 
                      00210 ID_main_3       code
0000                  00211 ___str_3
0000   340A           00212         retlw 0x0a ; '.'
0001   3445           00213         retlw 0x45 ; 'E'
0002   346E           00214         retlw 0x6e ; 'n'
0003   3474           00215         retlw 0x74 ; 't'
0004   3465           00216         retlw 0x65 ; 'e'
0005   3472           00217         retlw 0x72 ; 'r'
0006   3465           00218         retlw 0x65 ; 'e'
0007   3464           00219         retlw 0x64 ; 'd'
0008   3420           00220         retlw 0x20 ; ' '
0009   346D           00221         retlw 0x6d ; 'm'
000A   3461           00222         retlw 0x61 ; 'a'
000B   3474           00223         retlw 0x74 ; 't'
000C   3472           00224         retlw 0x72 ; 'r'
000D   3469           00225         retlw 0x69 ; 'i'
000E   3478           00226         retlw 0x78 ; 'x'
000F   343A           00227         retlw 0x3a ; ':'
0010   340A           00228         retlw 0x0a ; '.'
0011   3400           00229         retlw 0x00 ; '.'
                      00230 
                      00231 ID_main_4       code
0000                  00232 ___str_4
0000   3425           00233         retlw 0x25 ; '%'
0001   3464           00234         retlw 0x64 ; 'd'
0002   3420           00235         retlw 0x20 ; ' '
0003   3400           00236         retlw 0x00 ; '.'
                      00237 
                      00238 ID_main_5       code
0000                  00239 ___str_5
0000   340A           00240         retlw 0x0a ; '.'
0001   340A           00241         retlw 0x0a ; '.'
0002   3400           00242         retlw 0x00 ; '.'
                      00243 
                      00244 ID_main_6       code
0000                  00245 ___str_6
0000   340A           00246         retlw 0x0a ; '.'
0001   3454           00247         retlw 0x54 ; 'T'
0002   3472           00248         retlw 0x72 ; 'r'
0003   3461           00249         retlw 0x61 ; 'a'
0004   346E           00250         retlw 0x6e ; 'n'
0005   3473           00251         retlw 0x73 ; 's'
0006   3470           00252         retlw 0x70 ; 'p'
0007   346F           00253         retlw 0x6f ; 'o'
0008   3473           00254         retlw 0x73 ; 's'
0009   3465           00255         retlw 0x65 ; 'e'
gpasm-1.4.0 #1106 (Oct  6 2014) obj\Debug\mai   2-26-2021  01:02:42         PAGE  6


LOC    OBJECT CODE    LINE  SOURCE TEXT
  VALUE

000A   3420           00256         retlw 0x20 ; ' '
000B   346D           00257         retlw 0x6d ; 'm'
000C   3461           00258         retlw 0x61 ; 'a'
000D   3474           00259         retlw 0x74 ; 't'
000E   3472           00260         retlw 0x72 ; 'r'
000F   3469           00261         retlw 0x69 ; 'i'
0010   3478           00262         retlw 0x78 ; 'x'
0011   343A           00263         retlw 0x3a ; ':'
0012   340A           00264         retlw 0x0a ; '.'
0013   3400           00265         retlw 0x00 ; '.'
                      00266 ;--------------------------------------------------------
                      00267 ; overlayable items in internal ram 
                      00268 ;--------------------------------------------------------
                      00269 ;       udata_ovr
                      00270 ;--------------------------------------------------------
                      00271 ; reset vector 
                      00272 ;--------------------------------------------------------
                      00273 STARTUP code 0x0000
0000   0000           00274         nop
0001   ???? ????      00275         pagesel __sdcc_gsinit_startup
0003   2???           00276         goto    __sdcc_gsinit_startup
                      00277 ;--------------------------------------------------------
                      00278 ; code
                      00279 ;--------------------------------------------------------
                      00280 code_main       code
                      00281 ;***
                      00282 ;  pBlock Stats: dbName = M
                      00283 ;***
                      00284 ;entry:  _main  ;Function start
                      00285 ; 2 exit points
                      00286 ;has an exit
                      00287 ;functions called:
                      00288 ;   _printf
                      00289 ;   _printf
                      00290 ;   _printf
                      00291 ;   _printf
                      00292 ;   _printf
                      00293 ;   _printf
                      00294 ;   _printf
                      00295 ;   _printf
                      00296 ;   _printf
                      00297 ;   _printf
                      00298 ;   _printf
                      00299 ;   _printf
                      00300 ;   _printf
                      00301 ;   _printf
                      00302 ;   _printf
                      00303 ;   _printf
                      00304 ;   _printf
                      00305 ;   _printf
                      00306 ;24 compiler assigned registers:
                      00307 ;   r0x1194
                      00308 ;   r0x1195
gpasm-1.4.0 #1106 (Oct  6 2014) obj\Debug\mai   2-26-2021  01:02:42         PAGE  7


LOC    OBJECT CODE    LINE  SOURCE TEXT
  VALUE

                      00309 ;   r0x1196
                      00310 ;   r0x1197
                      00311 ;   r0x1198
                      00312 ;   r0x1199
                      00313 ;   r0x119A
                      00314 ;   r0x119B
                      00315 ;   r0x119C
                      00316 ;   r0x119D
                      00317 ;   r0x119E
                      00318 ;   r0x119F
                      00319 ;   r0x11A0
                      00320 ;   r0x11A1
                      00321 ;   r0x11A2
                      00322 ;   r0x11A3
                      00323 ;   r0x11A4
                      00324 ;   r0x11A5
                      00325 ;   r0x11A6
                      00326 ;   r0x11A7
                      00327 ;   r0x11A8
                      00328 ;   r0x11A9
                      00329 ;   r0x11AA
                      00330 ;   STK00
                      00331 ;; Starting pCode block
                      00332 ;;; /home/sdcc-builder/build/sdcc-build/orig/sdcc/src/pic14/gen.c:2316:resultRemat *{*
                      00333 ;;; /home/sdcc-builder/build/sdcc-build/orig/sdcc/src/pic14/gen.c:2760:genLabel *{*
                      00334 ;; ***  genLabel  2763
                      00335 ;;; /home/sdcc-builder/build/sdcc-build/orig/sdcc/src/pic14/gen.c:2316:resultRemat *{*
                      00336 ;;; /home/sdcc-builder/build/sdcc-build/orig/sdcc/src/pic14/gen.c:2340:genFunction *{*
                      00337 ;; ***  genFunction  2342 curr label offset=0previous max_key=0 
0000                  00338 _main   ;Function start
                      00339 ; 2 exit points
                      00340 ;;; /home/sdcc-builder/build/sdcc-build/orig/sdcc/src/pic14/gen.c:2316:resultRemat *{*
                      00341 ;;; /home/sdcc-builder/build/sdcc-build/orig/sdcc/src/pic14/gen.c:2316:resultRemat *{*
                      00342 ;;; /home/sdcc-builder/build/sdcc-build/orig/sdcc/src/pic14/gen.c:7120:genCast *{*
                      00343 ;; ***  genCast  7121
                      00344 ;;      613
                      00345 ;;      aopForRemat 392
                      00346 ;;      418: rname ___str_0, val 0, const = 0
                      00347 ;;      694 register type nRegs=3
                      00348 ;;      833: aopGet AOP_PCODE type PO_IMMEDIATE
                      00349 ;;      ___str_0
                      00350 ;;      line = 7129 result AOP_REG=r0x1048, size=3, left -=-, size=0, right AOP_PCODE=___str_0, size=2
                      00351 ;; ***  genCast  7174
                      00352 ;;; /home/sdcc-builder/build/sdcc-build/orig/sdcc/src/pic14/gen.c:1343:mov2w_op *{*
                      00353 ;; >>> /home/sdcc-builder/build/sdcc-build/orig/sdcc/src/pic14/gen.c:1361:mov2w_op
                      00354         .line   10; "main.c"    printf("Enter rows and coulumns of the matrix \n");
0000   30??           00355         MOVLW   high (___str_0 + 0)
                      00356 ;; >>> /home/sdcc-builder/build/sdcc-build/orig/sdcc/src/pic14/gen.c:1393:movwf
                      00357 ;;      1109 rIdx = r0x1049 
0001   ???? ????      00358         BANKSEL r0x1194
0003   00??           00359         MOVWF   r0x1194
                      00360 ;;; /home/sdcc-builder/build/sdcc-build/orig/sdcc/src/pic14/gen.c:1343:mov2w_op *{*
                      00361 ;; >>> /home/sdcc-builder/build/sdcc-build/orig/sdcc/src/pic14/gen.c:1361:mov2w_op
gpasm-1.4.0 #1106 (Oct  6 2014) obj\Debug\mai   2-26-2021  01:02:42         PAGE  8


LOC    OBJECT CODE    LINE  SOURCE TEXT
  VALUE

0004   30??           00362         MOVLW   (___str_0 + 0)
                      00363 ;; >>> /home/sdcc-builder/build/sdcc-build/orig/sdcc/src/pic14/gen.c:1393:movwf
                      00364 ;;      1109 rIdx = r0x1048 
0005   00??           00365         MOVWF   r0x1195
                      00366 ;; >>> /home/sdcc-builder/build/sdcc-build/orig/sdcc/src/pic14/gen.c:7234:genCast
0006   3080           00367         MOVLW   0x80
                      00368 ;; >>> /home/sdcc-builder/build/sdcc-build/orig/sdcc/src/pic14/gen.c:1393:movwf
                      00369 ;;      1109 rIdx = r0x104A 
0007   00??           00370         MOVWF   r0x1196
                      00371 ;;; /home/sdcc-builder/build/sdcc-build/orig/sdcc/src/pic14/gen.c:2316:resultRemat *{*
                      00372 ;;; /home/sdcc-builder/build/sdcc-build/orig/sdcc/src/pic14/gen.c:1928:genIpush *{*
                      00373 ;; ***  genIpush  1930 - WARNING no code generated
                      00374 ;;; /home/sdcc-builder/build/sdcc-build/orig/sdcc/src/pic14/gen.c:2316:resultRemat *{*
                      00375 ;;; /home/sdcc-builder/build/sdcc-build/orig/sdcc/src/pic14/gen.c:2086:genCall *{*
                      00376 ;; ***  genCall  2088
                      00377 ;;; /home/sdcc-builder/build/sdcc-build/orig/sdcc/src/pic14/gen.c:1801:saveRegisters *{*
                      00378 ;; ***  saveRegisters  1803
                      00379 ;; >>> /home/sdcc-builder/build/sdcc-build/orig/sdcc/src/pic14/gen.c:2173:genCall
0008   ???? ????      00380         PAGESEL _printf
                      00381 ;; >>> /home/sdcc-builder/build/sdcc-build/orig/sdcc/src/pic14/gen.c:2175:genCall
000A   2???           00382         CALL    _printf
                      00383 ;; >>> /home/sdcc-builder/build/sdcc-build/orig/sdcc/src/pic14/gen.c:2181:genCall
000B   ???? ????      00384         PAGESEL $
                      00385 ;;; /home/sdcc-builder/build/sdcc-build/orig/sdcc/src/pic14/gen.c:1845:unsaveRegisters *{*
                      00386 ;; ***  unsaveRegisters  1847
                      00387 ;;; /home/sdcc-builder/build/sdcc-build/orig/sdcc/src/pic14/gen.c:2316:resultRemat *{*
                      00388 ;;; /home/sdcc-builder/build/sdcc-build/orig/sdcc/src/pic14/gen.c:2316:resultRemat *{*
                      00389 ;;; /home/sdcc-builder/build/sdcc-build/orig/sdcc/src/pic14/gen.c:2316:resultRemat *{*
                      00390 ;;; /home/sdcc-builder/build/sdcc-build/orig/sdcc/src/pic14/gen.c:6927:genAssign *{*
                      00391 ;; ***  genAssign  6928
                      00392 ;;      694 register type nRegs=2
                      00393 ;;      line = 6937 result AOP_REG=r0x1048, size=2, left -=-, size=0, right AOP_LIT=0x00, size=2
                      00394 ;; ***  genAssign  7023
                      00395 ;; >>> /home/sdcc-builder/build/sdcc-build/orig/sdcc/src/pic14/gen.c:7035:genAssign
                      00396 ;;      1109 rIdx = r0x1048 
                      00397         .line   15; "main.c"    for(i=0;i<r;i++)
000D   ???? ????      00398         BANKSEL r0x1195
000F   01??           00399         CLRF    r0x1195
                      00400 ;; ***  genAssign  7023
                      00401 ;; >>> /home/sdcc-builder/build/sdcc-build/orig/sdcc/src/pic14/gen.c:7035:genAssign
                      00402 ;;      1109 rIdx = r0x1049 
0010   01??           00403         CLRF    r0x1194
                      00404 ;;; /home/sdcc-builder/build/sdcc-build/orig/sdcc/src/pic14/gen.c:2316:resultRemat *{*
                      00405 ;;; /home/sdcc-builder/build/sdcc-build/orig/sdcc/src/pic14/gen.c:2760:genLabel *{*
                      00406 ;; ***  genLabel  2763
                      00407 ;;; /home/sdcc-builder/build/sdcc-build/orig/sdcc/src/pic14/gen.c:2316:resultRemat *{*
                      00408 ;;; /home/sdcc-builder/build/sdcc-build/orig/sdcc/src/pic14/gen.c:3583:genCmpLt *{*
                      00409 ;; ***  genCmpLt  3584
                      00410 ;;      694 register type nRegs=2
                      00411 ;; ***  aopForSym 315
                      00412 ;;      327 sym->rname = _main_r_1_28, size = 2
                      00413 ;;; /home/sdcc-builder/build/sdcc-build/orig/sdcc/src/pic14/gen.c:3294:genCmp *{*
                      00414 ;; ***  mov2w  1381  offset=1
gpasm-1.4.0 #1106 (Oct  6 2014) obj\Debug\mai   2-26-2021  01:02:42         PAGE  9


LOC    OBJECT CODE    LINE  SOURCE TEXT
  VALUE

                      00415 ;; >>> /home/sdcc-builder/build/sdcc-build/orig/sdcc/src/pic14/gen.c:1386:mov2w
                      00416 ;;      1109 rIdx = r0x1049 
0011                  00417 _00121_DS_
0011   ???? ????      00418         BANKSEL r0x1194
0013   08??           00419         MOVF    r0x1194,W
                      00420 ;; >>> /home/sdcc-builder/build/sdcc-build/orig/sdcc/src/pic14/gen.c:3462:genCmp
0014   3E80           00421         ADDLW   0x80
                      00422 ;; >>> /home/sdcc-builder/build/sdcc-build/orig/sdcc/src/pic14/gen.c:3463:genCmp
0015   00??           00423         MOVWF   r0x1197
                      00424 ;; ***  mov2w  1381  offset=1
                      00425 ;; >>> /home/sdcc-builder/build/sdcc-build/orig/sdcc/src/pic14/gen.c:1386:mov2w
                      00426 ;;      1009
                      00427 ;;      1024  _main_r_1_28   offset=1 - had to alloc by reg name
0016   ???? ????      00428         BANKSEL _main_r_1_28
0018   08??           00429         MOVF    (_main_r_1_28 + 1),W
                      00430 ;; >>> /home/sdcc-builder/build/sdcc-build/orig/sdcc/src/pic14/gen.c:3465:genCmp
0019   3E80           00431         ADDLW   0x80
                      00432 ;; >>> /home/sdcc-builder/build/sdcc-build/orig/sdcc/src/pic14/gen.c:3466:genCmp
001A   ???? ????      00433         BANKSEL r0x1197
001C   02??           00434         SUBWF   r0x1197,W
                      00435 ;; >>> /home/sdcc-builder/build/sdcc-build/orig/sdcc/src/pic14/gen.c:3477:genCmp
001D   1D03           00436         BTFSS   STATUS,2
                      00437 ;; >>> /home/sdcc-builder/build/sdcc-build/orig/sdcc/src/pic14/gen.c:3478:genCmp
                      00438 ;; ***  popGetLabel  key=101, label offset 4
001E   2???           00439         GOTO    _00205_DS_
                      00440 ;; >>> /home/sdcc-builder/build/sdcc-build/orig/sdcc/src/pic14/gen.c:3269:pic14_mov2w_regOrLit
                      00441 ;;      1009
                      00442 ;;      1028  _main_r_1_28   offset=0
001F   ???? ????      00443         BANKSEL _main_r_1_28
0021   08??           00444         MOVF    _main_r_1_28,W
                      00445 ;; >>> /home/sdcc-builder/build/sdcc-build/orig/sdcc/src/pic14/gen.c:3480:genCmp
                      00446 ;;      1109 rIdx = r0x1048 
0022   ???? ????      00447         BANKSEL r0x1195
0024   02??           00448         SUBWF   r0x1195,W
                      00449 ;;; /home/sdcc-builder/build/sdcc-build/orig/sdcc/src/pic14/gen.c:3237:genSkipc *{*
                      00450 ;; >>> /home/sdcc-builder/build/sdcc-build/orig/sdcc/src/pic14/gen.c:3242:genSkipc
0025                  00451 _00205_DS_
0025   1803           00452         BTFSC   STATUS,0
                      00453 ;; >>> /home/sdcc-builder/build/sdcc-build/orig/sdcc/src/pic14/gen.c:3246:genSkipc
                      00454 ;; ***  popGetLabel  key=2, label offset 4
0026   2???           00455         GOTO    _00106_DS_
                      00456 ;;genSkipc:3247: created from rifx:027A5DF4
                      00457 ;;; /home/sdcc-builder/build/sdcc-build/orig/sdcc/src/pic14/gen.c:2316:resultRemat *{*
                      00458 ;;; /home/sdcc-builder/build/sdcc-build/orig/sdcc/src/pic14/gen.c:2316:resultRemat *{*
                      00459 ;;; /home/sdcc-builder/build/sdcc-build/orig/sdcc/src/pic14/gen.c:7120:genCast *{*
                      00460 ;; ***  genCast  7121
                      00461 ;;      613
                      00462 ;;      aopForRemat 392
                      00463 ;;      418: rname ___str_1, val 0, const = 0
                      00464 ;;      694 register type nRegs=3
                      00465 ;;      833: aopGet AOP_PCODE type PO_IMMEDIATE
                      00466 ;;      ___str_1
                      00467 ;;      line = 7129 result AOP_REG=r0x104A, size=3, left -=-, size=0, right AOP_PCODE=___str_1, size=2
gpasm-1.4.0 #1106 (Oct  6 2014) obj\Debug\mai   2-26-2021  01:02:42         PAGE 10


LOC    OBJECT CODE    LINE  SOURCE TEXT
  VALUE

                      00468 ;; ***  genCast  7174
                      00469 ;;; /home/sdcc-builder/build/sdcc-build/orig/sdcc/src/pic14/gen.c:1343:mov2w_op *{*
                      00470 ;; >>> /home/sdcc-builder/build/sdcc-build/orig/sdcc/src/pic14/gen.c:1361:mov2w_op
                      00471         .line   17; "main.c"    printf("Enter the elements of the row %d  :\n",i);
0027   30??           00472         MOVLW   high (___str_1 + 0)
                      00473 ;; >>> /home/sdcc-builder/build/sdcc-build/orig/sdcc/src/pic14/gen.c:1393:movwf
                      00474 ;;      1109 rIdx = r0x104B 
0028   ???? ????      00475         BANKSEL r0x1197
002A   00??           00476         MOVWF   r0x1197
                      00477 ;;; /home/sdcc-builder/build/sdcc-build/orig/sdcc/src/pic14/gen.c:1343:mov2w_op *{*
                      00478 ;; >>> /home/sdcc-builder/build/sdcc-build/orig/sdcc/src/pic14/gen.c:1361:mov2w_op
002B   30??           00479         MOVLW   (___str_1 + 0)
                      00480 ;; >>> /home/sdcc-builder/build/sdcc-build/orig/sdcc/src/pic14/gen.c:1393:movwf
                      00481 ;;      1109 rIdx = r0x104A 
002C   00??           00482         MOVWF   r0x1196
                      00483 ;; >>> /home/sdcc-builder/build/sdcc-build/orig/sdcc/src/pic14/gen.c:7234:genCast
002D   3080           00484         MOVLW   0x80
                      00485 ;; >>> /home/sdcc-builder/build/sdcc-build/orig/sdcc/src/pic14/gen.c:1393:movwf
                      00486 ;;      1109 rIdx = r0x104C 
002E   00??           00487         MOVWF   r0x1198
                      00488 ;;; /home/sdcc-builder/build/sdcc-build/orig/sdcc/src/pic14/gen.c:2316:resultRemat *{*
                      00489 ;;; /home/sdcc-builder/build/sdcc-build/orig/sdcc/src/pic14/gen.c:1928:genIpush *{*
                      00490 ;; ***  genIpush  1930 - WARNING no code generated
                      00491 ;;; /home/sdcc-builder/build/sdcc-build/orig/sdcc/src/pic14/gen.c:2316:resultRemat *{*
                      00492 ;;; /home/sdcc-builder/build/sdcc-build/orig/sdcc/src/pic14/gen.c:1928:genIpush *{*
                      00493 ;; ***  genIpush  1930 - WARNING no code generated
                      00494 ;;; /home/sdcc-builder/build/sdcc-build/orig/sdcc/src/pic14/gen.c:2316:resultRemat *{*
                      00495 ;;; /home/sdcc-builder/build/sdcc-build/orig/sdcc/src/pic14/gen.c:2086:genCall *{*
                      00496 ;; ***  genCall  2088
                      00497 ;;; /home/sdcc-builder/build/sdcc-build/orig/sdcc/src/pic14/gen.c:1801:saveRegisters *{*
                      00498 ;; ***  saveRegisters  1803
                      00499 ;; >>> /home/sdcc-builder/build/sdcc-build/orig/sdcc/src/pic14/gen.c:2173:genCall
002F   ???? ????      00500         PAGESEL _printf
                      00501 ;; >>> /home/sdcc-builder/build/sdcc-build/orig/sdcc/src/pic14/gen.c:2175:genCall
0031   2???           00502         CALL    _printf
                      00503 ;; >>> /home/sdcc-builder/build/sdcc-build/orig/sdcc/src/pic14/gen.c:2181:genCall
0032   ???? ????      00504         PAGESEL $
                      00505 ;;; /home/sdcc-builder/build/sdcc-build/orig/sdcc/src/pic14/gen.c:1845:unsaveRegisters *{*
                      00506 ;; ***  unsaveRegisters  1847
                      00507 ;;; /home/sdcc-builder/build/sdcc-build/orig/sdcc/src/pic14/gen.c:2316:resultRemat *{*
                      00508 ;;; /home/sdcc-builder/build/sdcc-build/orig/sdcc/src/pic14/gen.c:6927:genAssign *{*
                      00509 ;; ***  genAssign  6928
                      00510 ;;      694 register type nRegs=2
                      00511 ;;      line = 6937 result AOP_REG=r0x104A, size=2, left -=-, size=0, right AOP_LIT=0x00, size=2
                      00512 ;; ***  genAssign  7023
                      00513 ;; >>> /home/sdcc-builder/build/sdcc-build/orig/sdcc/src/pic14/gen.c:7035:genAssign
                      00514 ;;      1109 rIdx = r0x104A 
                      00515         .line   18; "main.c"    for (j=0;j<c;j++)
0034   ???? ????      00516         BANKSEL r0x1196
0036   01??           00517         CLRF    r0x1196
                      00518 ;; ***  genAssign  7023
                      00519 ;; >>> /home/sdcc-builder/build/sdcc-build/orig/sdcc/src/pic14/gen.c:7035:genAssign
                      00520 ;;      1109 rIdx = r0x104B 
gpasm-1.4.0 #1106 (Oct  6 2014) obj\Debug\mai   2-26-2021  01:02:42         PAGE 11


LOC    OBJECT CODE    LINE  SOURCE TEXT
  VALUE

0037   01??           00521         CLRF    r0x1197
                      00522 ;;; /home/sdcc-builder/build/sdcc-build/orig/sdcc/src/pic14/gen.c:2316:resultRemat *{*
                      00523 ;;; /home/sdcc-builder/build/sdcc-build/orig/sdcc/src/pic14/gen.c:2760:genLabel *{*
                      00524 ;; ***  genLabel  2763
                      00525 ;;; /home/sdcc-builder/build/sdcc-build/orig/sdcc/src/pic14/gen.c:2316:resultRemat *{*
                      00526 ;;; /home/sdcc-builder/build/sdcc-build/orig/sdcc/src/pic14/gen.c:3583:genCmpLt *{*
                      00527 ;; ***  genCmpLt  3584
                      00528 ;;      694 register type nRegs=2
                      00529 ;; ***  aopForSym 315
                      00530 ;;      327 sym->rname = _main_c_1_28, size = 2
                      00531 ;;; /home/sdcc-builder/build/sdcc-build/orig/sdcc/src/pic14/gen.c:3294:genCmp *{*
                      00532 ;; ***  mov2w  1381  offset=1
                      00533 ;; >>> /home/sdcc-builder/build/sdcc-build/orig/sdcc/src/pic14/gen.c:1386:mov2w
                      00534 ;;      1109 rIdx = r0x104B 
0038                  00535 _00118_DS_
0038   ???? ????      00536         BANKSEL r0x1197
003A   08??           00537         MOVF    r0x1197,W
                      00538 ;; >>> /home/sdcc-builder/build/sdcc-build/orig/sdcc/src/pic14/gen.c:3462:genCmp
003B   3E80           00539         ADDLW   0x80
                      00540 ;; >>> /home/sdcc-builder/build/sdcc-build/orig/sdcc/src/pic14/gen.c:3463:genCmp
003C   00??           00541         MOVWF   r0x1199
                      00542 ;; ***  mov2w  1381  offset=1
                      00543 ;; >>> /home/sdcc-builder/build/sdcc-build/orig/sdcc/src/pic14/gen.c:1386:mov2w
                      00544 ;;      1009
                      00545 ;;      1024  _main_c_1_28   offset=1 - had to alloc by reg name
003D   ???? ????      00546         BANKSEL _main_c_1_28
003F   08??           00547         MOVF    (_main_c_1_28 + 1),W
                      00548 ;; >>> /home/sdcc-builder/build/sdcc-build/orig/sdcc/src/pic14/gen.c:3465:genCmp
0040   3E80           00549         ADDLW   0x80
                      00550 ;; >>> /home/sdcc-builder/build/sdcc-build/orig/sdcc/src/pic14/gen.c:3466:genCmp
0041   ???? ????      00551         BANKSEL r0x1199
0043   02??           00552         SUBWF   r0x1199,W
                      00553 ;; >>> /home/sdcc-builder/build/sdcc-build/orig/sdcc/src/pic14/gen.c:3477:genCmp
0044   1D03           00554         BTFSS   STATUS,2
                      00555 ;; >>> /home/sdcc-builder/build/sdcc-build/orig/sdcc/src/pic14/gen.c:3478:genCmp
                      00556 ;; ***  popGetLabel  key=102, label offset 4
0045   2???           00557         GOTO    _00206_DS_
                      00558 ;; >>> /home/sdcc-builder/build/sdcc-build/orig/sdcc/src/pic14/gen.c:3269:pic14_mov2w_regOrLit
                      00559 ;;      1009
                      00560 ;;      1028  _main_c_1_28   offset=0
0046   ???? ????      00561         BANKSEL _main_c_1_28
0048   08??           00562         MOVF    _main_c_1_28,W
                      00563 ;; >>> /home/sdcc-builder/build/sdcc-build/orig/sdcc/src/pic14/gen.c:3480:genCmp
                      00564 ;;      1109 rIdx = r0x104A 
0049   ???? ????      00565         BANKSEL r0x1196
004B   02??           00566         SUBWF   r0x1196,W
                      00567 ;;; /home/sdcc-builder/build/sdcc-build/orig/sdcc/src/pic14/gen.c:3237:genSkipc *{*
                      00568 ;; >>> /home/sdcc-builder/build/sdcc-build/orig/sdcc/src/pic14/gen.c:3242:genSkipc
004C                  00569 _00206_DS_
004C   1803           00570         BTFSC   STATUS,0
                      00571 ;; >>> /home/sdcc-builder/build/sdcc-build/orig/sdcc/src/pic14/gen.c:3246:genSkipc
                      00572 ;; ***  popGetLabel  key=18, label offset 4
004D   2???           00573         GOTO    _00122_DS_
gpasm-1.4.0 #1106 (Oct  6 2014) obj\Debug\mai   2-26-2021  01:02:42         PAGE 12


LOC    OBJECT CODE    LINE  SOURCE TEXT
  VALUE

                      00574 ;;genSkipc:3247: created from rifx:027A5DF4
                      00575 ;;; /home/sdcc-builder/build/sdcc-build/orig/sdcc/src/pic14/gen.c:2316:resultRemat *{*
                      00576 ;;; /home/sdcc-builder/build/sdcc-build/orig/sdcc/src/pic14/gen.c:2316:resultRemat *{*
                      00577 ;;; /home/sdcc-builder/build/sdcc-build/orig/sdcc/src/pic14/gen.c:7120:genCast *{*
                      00578 ;; ***  genCast  7121
                      00579 ;;      613
                      00580 ;;      aopForRemat 392
                      00581 ;;      418: rname ___str_2, val 0, const = 0
                      00582 ;;      694 register type nRegs=3
                      00583 ;;      833: aopGet AOP_PCODE type PO_IMMEDIATE
                      00584 ;;      ___str_2
                      00585 ;;      line = 7129 result AOP_REG=r0x104C, size=3, left -=-, size=0, right AOP_PCODE=___str_2, size=2
                      00586 ;; ***  genCast  7174
                      00587 ;;; /home/sdcc-builder/build/sdcc-build/orig/sdcc/src/pic14/gen.c:1343:mov2w_op *{*
                      00588 ;; >>> /home/sdcc-builder/build/sdcc-build/orig/sdcc/src/pic14/gen.c:1361:mov2w_op
                      00589         .line   20; "main.c"    printf ("\t");
004E   30??           00590         MOVLW   high (___str_2 + 0)
                      00591 ;; >>> /home/sdcc-builder/build/sdcc-build/orig/sdcc/src/pic14/gen.c:1393:movwf
                      00592 ;;      1109 rIdx = r0x104D 
004F   ???? ????      00593         BANKSEL r0x1199
0051   00??           00594         MOVWF   r0x1199
                      00595 ;;; /home/sdcc-builder/build/sdcc-build/orig/sdcc/src/pic14/gen.c:1343:mov2w_op *{*
                      00596 ;; >>> /home/sdcc-builder/build/sdcc-build/orig/sdcc/src/pic14/gen.c:1361:mov2w_op
0052   30??           00597         MOVLW   (___str_2 + 0)
                      00598 ;; >>> /home/sdcc-builder/build/sdcc-build/orig/sdcc/src/pic14/gen.c:1393:movwf
                      00599 ;;      1109 rIdx = r0x104C 
0053   00??           00600         MOVWF   r0x1198
                      00601 ;; >>> /home/sdcc-builder/build/sdcc-build/orig/sdcc/src/pic14/gen.c:7234:genCast
0054   3080           00602         MOVLW   0x80
                      00603 ;; >>> /home/sdcc-builder/build/sdcc-build/orig/sdcc/src/pic14/gen.c:1393:movwf
                      00604 ;;      1109 rIdx = r0x104E 
0055   00??           00605         MOVWF   r0x119A
                      00606 ;;; /home/sdcc-builder/build/sdcc-build/orig/sdcc/src/pic14/gen.c:2316:resultRemat *{*
                      00607 ;;; /home/sdcc-builder/build/sdcc-build/orig/sdcc/src/pic14/gen.c:1928:genIpush *{*
                      00608 ;; ***  genIpush  1930 - WARNING no code generated
                      00609 ;;; /home/sdcc-builder/build/sdcc-build/orig/sdcc/src/pic14/gen.c:2316:resultRemat *{*
                      00610 ;;; /home/sdcc-builder/build/sdcc-build/orig/sdcc/src/pic14/gen.c:2086:genCall *{*
                      00611 ;; ***  genCall  2088
                      00612 ;;; /home/sdcc-builder/build/sdcc-build/orig/sdcc/src/pic14/gen.c:1801:saveRegisters *{*
                      00613 ;; ***  saveRegisters  1803
                      00614 ;; >>> /home/sdcc-builder/build/sdcc-build/orig/sdcc/src/pic14/gen.c:2173:genCall
0056   ???? ????      00615         PAGESEL _printf
                      00616 ;; >>> /home/sdcc-builder/build/sdcc-build/orig/sdcc/src/pic14/gen.c:2175:genCall
0058   2???           00617         CALL    _printf
                      00618 ;; >>> /home/sdcc-builder/build/sdcc-build/orig/sdcc/src/pic14/gen.c:2181:genCall
0059   ???? ????      00619         PAGESEL $
                      00620 ;;; /home/sdcc-builder/build/sdcc-build/orig/sdcc/src/pic14/gen.c:1845:unsaveRegisters *{*
                      00621 ;; ***  unsaveRegisters  1847
                      00622 ;;; /home/sdcc-builder/build/sdcc-build/orig/sdcc/src/pic14/gen.c:2316:resultRemat *{*
                      00623 ;; ***  genPlus  611
                      00624 ;;; /home/sdcc-builder/build/sdcc-build/orig/sdcc/src/pic14/genarith.c:612:genPlus *{*
                      00625 ;;      694 register type nRegs=2
                      00626 ;;      575
gpasm-1.4.0 #1106 (Oct  6 2014) obj\Debug\mai   2-26-2021  01:02:42         PAGE 13


LOC    OBJECT CODE    LINE  SOURCE TEXT
  VALUE

                      00627 ;;      line = 618 result AOP_REG=r0x104A, size=2, left AOP_REG=r0x104A, size=2, right AOP_LIT=0x01, siz
                            e=1
                      00628 ;;; /home/sdcc-builder/build/sdcc-build/orig/sdcc/src/pic14/genarith.c:142:genPlusIncr *{*
                      00629 ;; ***  genPlusIncr  144
                      00630 ;;      result AOP_REG, left AOP_REG, right AOP_LIT
                      00631 ;;      genPlusIncr  156
                      00632 ;; >>> /home/sdcc-builder/build/sdcc-build/orig/sdcc/src/pic14/genarith.c:168:genPlusIncr
                      00633 ;;      1109 rIdx = r0x104A 
                      00634         .line   18; "main.c"    for (j=0;j<c;j++)
005B   ???? ????      00635         BANKSEL r0x1196
005D   0A??           00636         INCF    r0x1196,F
                      00637 ;; >>> /home/sdcc-builder/build/sdcc-build/orig/sdcc/src/pic14/genarith.c:172:genPlusIncr
005E   1903           00638         BTFSC   STATUS,2
                      00639 ;; >>> /home/sdcc-builder/build/sdcc-build/orig/sdcc/src/pic14/genarith.c:173:genPlusIncr
                      00640 ;;      1109 rIdx = r0x104B 
005F   0A??           00641         INCF    r0x1197,F
                      00642 ;;; /home/sdcc-builder/build/sdcc-build/orig/sdcc/src/pic14/gen.c:2316:resultRemat *{*
                      00643 ;;; /home/sdcc-builder/build/sdcc-build/orig/sdcc/src/pic14/gen.c:2778:genGoto *{*
                      00644 ;; >>> /home/sdcc-builder/build/sdcc-build/orig/sdcc/src/pic14/gen.c:2780:genGoto
                      00645 ;; ***  popGetLabel  key=14, label offset 4
0060   2???           00646         GOTO    _00118_DS_
                      00647 ;;; /home/sdcc-builder/build/sdcc-build/orig/sdcc/src/pic14/gen.c:2316:resultRemat *{*
                      00648 ;;; /home/sdcc-builder/build/sdcc-build/orig/sdcc/src/pic14/gen.c:2760:genLabel *{*
                      00649 ;; ***  genLabel  2763
                      00650 ;;; /home/sdcc-builder/build/sdcc-build/orig/sdcc/src/pic14/gen.c:2316:resultRemat *{*
                      00651 ;; ***  genPlus  611
                      00652 ;;; /home/sdcc-builder/build/sdcc-build/orig/sdcc/src/pic14/genarith.c:612:genPlus *{*
                      00653 ;;      694 register type nRegs=2
                      00654 ;;      575
                      00655 ;;      line = 618 result AOP_REG=r0x1048, size=2, left AOP_REG=r0x1048, size=2, right AOP_LIT=0x01, siz
                            e=1
                      00656 ;;; /home/sdcc-builder/build/sdcc-build/orig/sdcc/src/pic14/genarith.c:142:genPlusIncr *{*
                      00657 ;; ***  genPlusIncr  144
                      00658 ;;      result AOP_REG, left AOP_REG, right AOP_LIT
                      00659 ;;      genPlusIncr  156
                      00660 ;; >>> /home/sdcc-builder/build/sdcc-build/orig/sdcc/src/pic14/genarith.c:168:genPlusIncr
                      00661 ;;      1109 rIdx = r0x1048 
0061                  00662 _00122_DS_
                      00663         .line   15; "main.c"    for(i=0;i<r;i++)
0061   ???? ????      00664         BANKSEL r0x1195
0063   0A??           00665         INCF    r0x1195,F
                      00666 ;; >>> /home/sdcc-builder/build/sdcc-build/orig/sdcc/src/pic14/genarith.c:172:genPlusIncr
0064   1903           00667         BTFSC   STATUS,2
                      00668 ;; >>> /home/sdcc-builder/build/sdcc-build/orig/sdcc/src/pic14/genarith.c:173:genPlusIncr
                      00669 ;;      1109 rIdx = r0x1049 
0065   0A??           00670         INCF    r0x1194,F
                      00671 ;;; /home/sdcc-builder/build/sdcc-build/orig/sdcc/src/pic14/gen.c:2316:resultRemat *{*
                      00672 ;;; /home/sdcc-builder/build/sdcc-build/orig/sdcc/src/pic14/gen.c:2778:genGoto *{*
                      00673 ;; >>> /home/sdcc-builder/build/sdcc-build/orig/sdcc/src/pic14/gen.c:2780:genGoto
                      00674 ;; ***  popGetLabel  key=17, label offset 4
0066   2???           00675         GOTO    _00121_DS_
                      00676 ;;; /home/sdcc-builder/build/sdcc-build/orig/sdcc/src/pic14/gen.c:2316:resultRemat *{*
                      00677 ;;; /home/sdcc-builder/build/sdcc-build/orig/sdcc/src/pic14/gen.c:2760:genLabel *{*
gpasm-1.4.0 #1106 (Oct  6 2014) obj\Debug\mai   2-26-2021  01:02:42         PAGE 14


LOC    OBJECT CODE    LINE  SOURCE TEXT
  VALUE

                      00678 ;; ***  genLabel  2763
                      00679 ;;; /home/sdcc-builder/build/sdcc-build/orig/sdcc/src/pic14/gen.c:2316:resultRemat *{*
                      00680 ;;; /home/sdcc-builder/build/sdcc-build/orig/sdcc/src/pic14/gen.c:2316:resultRemat *{*
                      00681 ;;; /home/sdcc-builder/build/sdcc-build/orig/sdcc/src/pic14/gen.c:7120:genCast *{*
                      00682 ;; ***  genCast  7121
                      00683 ;;      613
                      00684 ;;      aopForRemat 392
                      00685 ;;      418: rname ___str_3, val 0, const = 0
                      00686 ;;      694 register type nRegs=3
                      00687 ;;      833: aopGet AOP_PCODE type PO_IMMEDIATE
                      00688 ;;      ___str_3
                      00689 ;;      line = 7129 result AOP_REG=r0x1048, size=3, left -=-, size=0, right AOP_PCODE=___str_3, size=2
                      00690 ;; ***  genCast  7174
                      00691 ;;; /home/sdcc-builder/build/sdcc-build/orig/sdcc/src/pic14/gen.c:1343:mov2w_op *{*
                      00692 ;; >>> /home/sdcc-builder/build/sdcc-build/orig/sdcc/src/pic14/gen.c:1361:mov2w_op
0067                  00693 _00106_DS_
                      00694         .line   26; "main.c"    printf("\nEntered matrix:\n");
0067   30??           00695         MOVLW   high (___str_3 + 0)
                      00696 ;; >>> /home/sdcc-builder/build/sdcc-build/orig/sdcc/src/pic14/gen.c:1393:movwf
                      00697 ;;      1109 rIdx = r0x1049 
0068   ???? ????      00698         BANKSEL r0x1194
006A   00??           00699         MOVWF   r0x1194
                      00700 ;;; /home/sdcc-builder/build/sdcc-build/orig/sdcc/src/pic14/gen.c:1343:mov2w_op *{*
                      00701 ;; >>> /home/sdcc-builder/build/sdcc-build/orig/sdcc/src/pic14/gen.c:1361:mov2w_op
006B   30??           00702         MOVLW   (___str_3 + 0)
                      00703 ;; >>> /home/sdcc-builder/build/sdcc-build/orig/sdcc/src/pic14/gen.c:1393:movwf
                      00704 ;;      1109 rIdx = r0x1048 
006C   00??           00705         MOVWF   r0x1195
                      00706 ;; >>> /home/sdcc-builder/build/sdcc-build/orig/sdcc/src/pic14/gen.c:7234:genCast
006D   3080           00707         MOVLW   0x80
                      00708 ;; >>> /home/sdcc-builder/build/sdcc-build/orig/sdcc/src/pic14/gen.c:1393:movwf
                      00709 ;;      1109 rIdx = r0x104A 
006E   00??           00710         MOVWF   r0x1196
                      00711 ;;; /home/sdcc-builder/build/sdcc-build/orig/sdcc/src/pic14/gen.c:2316:resultRemat *{*
                      00712 ;;; /home/sdcc-builder/build/sdcc-build/orig/sdcc/src/pic14/gen.c:1928:genIpush *{*
                      00713 ;; ***  genIpush  1930 - WARNING no code generated
                      00714 ;;; /home/sdcc-builder/build/sdcc-build/orig/sdcc/src/pic14/gen.c:2316:resultRemat *{*
                      00715 ;;; /home/sdcc-builder/build/sdcc-build/orig/sdcc/src/pic14/gen.c:2086:genCall *{*
                      00716 ;; ***  genCall  2088
                      00717 ;;; /home/sdcc-builder/build/sdcc-build/orig/sdcc/src/pic14/gen.c:1801:saveRegisters *{*
                      00718 ;; ***  saveRegisters  1803
                      00719 ;; >>> /home/sdcc-builder/build/sdcc-build/orig/sdcc/src/pic14/gen.c:2173:genCall
006F   ???? ????      00720         PAGESEL _printf
                      00721 ;; >>> /home/sdcc-builder/build/sdcc-build/orig/sdcc/src/pic14/gen.c:2175:genCall
0071   2???           00722         CALL    _printf
                      00723 ;; >>> /home/sdcc-builder/build/sdcc-build/orig/sdcc/src/pic14/gen.c:2181:genCall
0072   ???? ????      00724         PAGESEL $
                      00725 ;;; /home/sdcc-builder/build/sdcc-build/orig/sdcc/src/pic14/gen.c:1845:unsaveRegisters *{*
                      00726 ;; ***  unsaveRegisters  1847
                      00727 ;;; /home/sdcc-builder/build/sdcc-build/orig/sdcc/src/pic14/gen.c:2316:resultRemat *{*
                      00728 ;;; /home/sdcc-builder/build/sdcc-build/orig/sdcc/src/pic14/gen.c:2316:resultRemat *{*
                      00729 ;;; /home/sdcc-builder/build/sdcc-build/orig/sdcc/src/pic14/gen.c:2316:resultRemat *{*
                      00730 ;;; /home/sdcc-builder/build/sdcc-build/orig/sdcc/src/pic14/gen.c:2316:resultRemat *{*
gpasm-1.4.0 #1106 (Oct  6 2014) obj\Debug\mai   2-26-2021  01:02:42         PAGE 15


LOC    OBJECT CODE    LINE  SOURCE TEXT
  VALUE

                      00731 ;;; /home/sdcc-builder/build/sdcc-build/orig/sdcc/src/pic14/gen.c:7317:genDjnz *{*
                      00732 ;; ***  genDjnz  7318
                      00733 ;;; /home/sdcc-builder/build/sdcc-build/orig/sdcc/src/pic14/genarith.c:896:genMinus *{*
                      00734 ;; ***  genMinus  897
                      00735 ;; ***  aopForSym 315
                      00736 ;;      327 sym->rname = _main_c_1_28, size = 2
                      00737 ;;      694 register type nRegs=2
                      00738 ;;      result AOP_REG, left AOP_DIR, right AOP_LIT
                      00739 ;;; /home/sdcc-builder/build/sdcc-build/orig/sdcc/src/pic14/genarith.c:269:genAddLit *{*
                      00740 ;; ***  genAddLit  270
                      00741 ;;  left and result aren't same genAddLit  514
                      00742 ;; >>> /home/sdcc-builder/build/sdcc-build/orig/sdcc/src/pic14/genarith.c:546:genAddLit
                      00743         .line   27; "main.c"    for(i=0;i<r;i++)
0074   30FF           00744         MOVLW   0xff
                      00745 ;; >>> /home/sdcc-builder/build/sdcc-build/orig/sdcc/src/pic14/genarith.c:547:genAddLit
                      00746 ;;      1009
                      00747 ;;      1028  _main_c_1_28   offset=0
0075   ???? ????      00748         BANKSEL _main_c_1_28
0077   07??           00749         ADDWF   _main_c_1_28,W
                      00750 ;;; /home/sdcc-builder/build/sdcc-build/orig/sdcc/src/pic14/genarith.c:253:emitMOVWF *{*
                      00751 ;; >>> /home/sdcc-builder/build/sdcc-build/orig/sdcc/src/pic14/genarith.c:257:emitMOVWF
                      00752 ;;      1109 rIdx = r0x1048 
0078   ???? ????      00753         BANKSEL r0x1195
007A   00??           00754         MOVWF   r0x1195
                      00755 ;; >>> /home/sdcc-builder/build/sdcc-build/orig/sdcc/src/pic14/genarith.c:574:genAddLit
007B   30FF           00756         MOVLW   0xff
                      00757 ;;; /home/sdcc-builder/build/sdcc-build/orig/sdcc/src/pic14/genarith.c:253:emitMOVWF *{*
                      00758 ;; >>> /home/sdcc-builder/build/sdcc-build/orig/sdcc/src/pic14/genarith.c:257:emitMOVWF
                      00759 ;;      1109 rIdx = r0x1049 
007C   00??           00760         MOVWF   r0x1194
                      00761 ;; >>> /home/sdcc-builder/build/sdcc-build/orig/sdcc/src/pic14/genarith.c:576:genAddLit
                      00762 ;;      1009
                      00763 ;;      1028  _main_c_1_28   offset=1
007D   ???? ????      00764         BANKSEL _main_c_1_28
007F   08??           00765         MOVF    (_main_c_1_28 + 1),W
                      00766 ;; >>> /home/sdcc-builder/build/sdcc-build/orig/sdcc/src/pic14/genarith.c:577:genAddLit
0080   1803           00767         BTFSC   STATUS,0
                      00768 ;; >>> /home/sdcc-builder/build/sdcc-build/orig/sdcc/src/pic14/genarith.c:578:genAddLit
                      00769 ;;      1009
                      00770 ;;      1028  _main_c_1_28   offset=1
0081   0A??           00771         INCF    (_main_c_1_28 + 1),W
0082   1903           00772         BTFSC   STATUS,2
0083   2???           00773         GOTO    _00001_DS_
                      00774 ;; >>> /home/sdcc-builder/build/sdcc-build/orig/sdcc/src/pic14/genarith.c:579:genAddLit
                      00775 ;;      1109 rIdx = r0x1049 
0084   ???? ????      00776         BANKSEL r0x1194
0086   07??           00777         ADDWF   r0x1194,F
                      00778 ;; ***  addSign  861
                      00779 ;;; /home/sdcc-builder/build/sdcc-build/orig/sdcc/src/pic14/genarith.c:862:addSign *{*
                      00780 ;;; /home/sdcc-builder/build/sdcc-build/orig/sdcc/src/pic14/gen.c:2316:resultRemat *{*
                      00781 ;;; /home/sdcc-builder/build/sdcc-build/orig/sdcc/src/pic14/gen.c:6927:genAssign *{*
                      00782 ;; ***  genAssign  6928
                      00783 ;;      694 register type nRegs=2
gpasm-1.4.0 #1106 (Oct  6 2014) obj\Debug\mai   2-26-2021  01:02:42         PAGE 16


LOC    OBJECT CODE    LINE  SOURCE TEXT
  VALUE

                      00784 ;;      line = 6937 result AOP_REG=r0x104A, size=2, left -=-, size=0, right AOP_LIT=0x00, size=2
                      00785 ;; ***  genAssign  7023
                      00786 ;; >>> /home/sdcc-builder/build/sdcc-build/orig/sdcc/src/pic14/gen.c:7035:genAssign
                      00787 ;;      1109 rIdx = r0x104A 
0087                  00788 _00001_DS_
0087   ???? ????      00789         BANKSEL r0x1196
0089   01??           00790         CLRF    r0x1196
                      00791 ;; ***  genAssign  7023
                      00792 ;; >>> /home/sdcc-builder/build/sdcc-build/orig/sdcc/src/pic14/gen.c:7035:genAssign
                      00793 ;;      1109 rIdx = r0x104B 
008A   01??           00794         CLRF    r0x1197
                      00795 ;;; /home/sdcc-builder/build/sdcc-build/orig/sdcc/src/pic14/gen.c:2316:resultRemat *{*
                      00796 ;;; /home/sdcc-builder/build/sdcc-build/orig/sdcc/src/pic14/gen.c:6927:genAssign *{*
                      00797 ;; ***  genAssign  6928
                      00798 ;;      694 register type nRegs=2
                      00799 ;;      line = 6937 result AOP_REG=r0x104C, size=2, left -=-, size=0, right AOP_LIT=0x00, size=2
                      00800 ;; ***  genAssign  7023
                      00801 ;; >>> /home/sdcc-builder/build/sdcc-build/orig/sdcc/src/pic14/gen.c:7035:genAssign
                      00802 ;;      1109 rIdx = r0x104C 
008B   01??           00803         CLRF    r0x1198
                      00804 ;; ***  genAssign  7023
                      00805 ;; >>> /home/sdcc-builder/build/sdcc-build/orig/sdcc/src/pic14/gen.c:7035:genAssign
                      00806 ;;      1109 rIdx = r0x104D 
008C   01??           00807         CLRF    r0x1199
                      00808 ;;; /home/sdcc-builder/build/sdcc-build/orig/sdcc/src/pic14/gen.c:2316:resultRemat *{*
                      00809 ;;; /home/sdcc-builder/build/sdcc-build/orig/sdcc/src/pic14/gen.c:2760:genLabel *{*
                      00810 ;; ***  genLabel  2763
                      00811 ;;; /home/sdcc-builder/build/sdcc-build/orig/sdcc/src/pic14/gen.c:2316:resultRemat *{*
                      00812 ;;; /home/sdcc-builder/build/sdcc-build/orig/sdcc/src/pic14/gen.c:3583:genCmpLt *{*
                      00813 ;; ***  genCmpLt  3584
                      00814 ;;      694 register type nRegs=2
                      00815 ;; ***  aopForSym 315
                      00816 ;;      327 sym->rname = _main_r_1_28, size = 2
                      00817 ;;; /home/sdcc-builder/build/sdcc-build/orig/sdcc/src/pic14/gen.c:3294:genCmp *{*
                      00818 ;; ***  mov2w  1381  offset=1
                      00819 ;; >>> /home/sdcc-builder/build/sdcc-build/orig/sdcc/src/pic14/gen.c:1386:mov2w
                      00820 ;;      1109 rIdx = r0x104B 
008D                  00821 _00127_DS_
008D   ???? ????      00822         BANKSEL r0x1197
008F   08??           00823         MOVF    r0x1197,W
                      00824 ;; >>> /home/sdcc-builder/build/sdcc-build/orig/sdcc/src/pic14/gen.c:3462:genCmp
0090   3E80           00825         ADDLW   0x80
                      00826 ;; >>> /home/sdcc-builder/build/sdcc-build/orig/sdcc/src/pic14/gen.c:3463:genCmp
0091   00??           00827         MOVWF   r0x119B
                      00828 ;; ***  mov2w  1381  offset=1
                      00829 ;; >>> /home/sdcc-builder/build/sdcc-build/orig/sdcc/src/pic14/gen.c:1386:mov2w
                      00830 ;;      1009
                      00831 ;;      1028  _main_r_1_28   offset=1
0092   ???? ????      00832         BANKSEL _main_r_1_28
0094   08??           00833         MOVF    (_main_r_1_28 + 1),W
                      00834 ;; >>> /home/sdcc-builder/build/sdcc-build/orig/sdcc/src/pic14/gen.c:3465:genCmp
0095   3E80           00835         ADDLW   0x80
                      00836 ;; >>> /home/sdcc-builder/build/sdcc-build/orig/sdcc/src/pic14/gen.c:3466:genCmp
gpasm-1.4.0 #1106 (Oct  6 2014) obj\Debug\mai   2-26-2021  01:02:42         PAGE 17


LOC    OBJECT CODE    LINE  SOURCE TEXT
  VALUE

0096   ???? ????      00837         BANKSEL r0x119B
0098   02??           00838         SUBWF   r0x119B,W
                      00839 ;; >>> /home/sdcc-builder/build/sdcc-build/orig/sdcc/src/pic14/gen.c:3477:genCmp
0099   1D03           00840         BTFSS   STATUS,2
                      00841 ;; >>> /home/sdcc-builder/build/sdcc-build/orig/sdcc/src/pic14/gen.c:3478:genCmp
                      00842 ;; ***  popGetLabel  key=103, label offset 4
009A   2???           00843         GOTO    _00207_DS_
                      00844 ;; >>> /home/sdcc-builder/build/sdcc-build/orig/sdcc/src/pic14/gen.c:3269:pic14_mov2w_regOrLit
                      00845 ;;      1009
                      00846 ;;      1028  _main_r_1_28   offset=0
009B   ???? ????      00847         BANKSEL _main_r_1_28
009D   08??           00848         MOVF    _main_r_1_28,W
                      00849 ;; >>> /home/sdcc-builder/build/sdcc-build/orig/sdcc/src/pic14/gen.c:3480:genCmp
                      00850 ;;      1109 rIdx = r0x104A 
009E   ???? ????      00851         BANKSEL r0x1196
00A0   02??           00852         SUBWF   r0x1196,W
                      00853 ;;; /home/sdcc-builder/build/sdcc-build/orig/sdcc/src/pic14/gen.c:3237:genSkipc *{*
                      00854 ;; >>> /home/sdcc-builder/build/sdcc-build/orig/sdcc/src/pic14/gen.c:3242:genSkipc
00A1                  00855 _00207_DS_
00A1   1803           00856         BTFSC   STATUS,0
                      00857 ;; >>> /home/sdcc-builder/build/sdcc-build/orig/sdcc/src/pic14/gen.c:3246:genSkipc
                      00858 ;; ***  popGetLabel  key=6, label offset 4
00A2   2???           00859         GOTO    _00110_DS_
                      00860 ;;genSkipc:3247: created from rifx:027A5DF4
                      00861 ;;; /home/sdcc-builder/build/sdcc-build/orig/sdcc/src/pic14/gen.c:2316:resultRemat *{*
                      00862 ;;; /home/sdcc-builder/build/sdcc-build/orig/sdcc/src/pic14/gen.c:2316:resultRemat *{*
                      00863 ;; ***  genPlus  611
                      00864 ;;; /home/sdcc-builder/build/sdcc-build/orig/sdcc/src/pic14/genarith.c:612:genPlus *{*
                      00865 ;;      613
                      00866 ;;      aopForRemat 392
                      00867 ;;      418: rname _main_matrix_1_28, val 0, const = 0
                      00868 ;;      694 register type nRegs=2
                      00869 ;;      694 register type nRegs=2
                      00870 ;;      833: aopGet AOP_PCODE type PO_IMMEDIATE
                      00871 ;;      _main_matrix_1_28
                      00872 ;;      line = 618 result AOP_REG=r0x104E, size=2, left AOP_PCODE=_main_matrix_1_28, size=2, right AOP_R
                            EG=r0x104C, size=2
                      00873 ;;; /home/sdcc-builder/build/sdcc-build/orig/sdcc/src/pic14/genarith.c:142:genPlusIncr *{*
                      00874 ;; ***  genPlusIncr  144
                      00875 ;;      result AOP_REG, left AOP_PCODE, right AOP_REG
                      00876 ;; ***  genPlus  717
                      00877 ;;      833: aopGet AOP_PCODE type PO_IMMEDIATE
                      00878 ;;      _main_matrix_1_28
                      00879 ;; >>> /home/sdcc-builder/build/sdcc-build/orig/sdcc/src/pic14/genarith.c:726:genPlus
                      00880 ;;      1109 rIdx = r0x104C 
                      00881         .line   29; "main.c"    for (j=0;j<c;j++)
00A3   ???? ????      00882         BANKSEL r0x1198
00A5   08??           00883         MOVF    r0x1198,W
                      00884 ;; >>> /home/sdcc-builder/build/sdcc-build/orig/sdcc/src/pic14/genarith.c:735:genPlus
00A6   3E??           00885         ADDLW   (_main_matrix_1_28 + 0)
                      00886 ;; >>> /home/sdcc-builder/build/sdcc-build/orig/sdcc/src/pic14/genarith.c:736:genPlus
                      00887 ;;      1109 rIdx = r0x104E 
00A7   00??           00888         MOVWF   r0x119A
gpasm-1.4.0 #1106 (Oct  6 2014) obj\Debug\mai   2-26-2021  01:02:42         PAGE 18


LOC    OBJECT CODE    LINE  SOURCE TEXT
  VALUE

                      00889 ;; >>> /home/sdcc-builder/build/sdcc-build/orig/sdcc/src/pic14/genarith.c:771:genPlus
00A8   30??           00890         MOVLW   high (_main_matrix_1_28 + 0)
                      00891 ;; >>> /home/sdcc-builder/build/sdcc-build/orig/sdcc/src/pic14/genarith.c:772:genPlus
                      00892 ;;      1109 rIdx = r0x104F 
00A9   00??           00893         MOVWF   r0x119B
                      00894 ;; >>> /home/sdcc-builder/build/sdcc-build/orig/sdcc/src/pic14/genarith.c:774:genPlus
                      00895 ;;      1109 rIdx = r0x104D 
00AA   08??           00896         MOVF    r0x1199,W
                      00897 ;; >>> /home/sdcc-builder/build/sdcc-build/orig/sdcc/src/pic14/genarith.c:775:genPlus
00AB   1803           00898         BTFSC   STATUS,0
                      00899 ;; >>> /home/sdcc-builder/build/sdcc-build/orig/sdcc/src/pic14/genarith.c:776:genPlus
                      00900 ;;      1109 rIdx = r0x104D 
00AC   0F??           00901         INCFSZ  r0x1199,W
                      00902 ;; >>> /home/sdcc-builder/build/sdcc-build/orig/sdcc/src/pic14/genarith.c:777:genPlus
                      00903 ;;      1109 rIdx = r0x104F 
00AD   07??           00904         ADDWF   r0x119B,F
                      00905 ;;; /home/sdcc-builder/build/sdcc-build/orig/sdcc/src/pic14/gen.c:2316:resultRemat *{*
                      00906 ;;; /home/sdcc-builder/build/sdcc-build/orig/sdcc/src/pic14/gen.c:6927:genAssign *{*
                      00907 ;; ***  genAssign  6928
                      00908 ;;      694 register type nRegs=2
                      00909 ;;      line = 6937 result AOP_REG=r0x1050, size=2, left -=-, size=0, right AOP_LIT=0x00, size=2
                      00910 ;; ***  genAssign  7023
                      00911 ;; >>> /home/sdcc-builder/build/sdcc-build/orig/sdcc/src/pic14/gen.c:7035:genAssign
                      00912 ;;      1109 rIdx = r0x1050 
00AE   01??           00913         CLRF    r0x119C
                      00914 ;; ***  genAssign  7023
                      00915 ;; >>> /home/sdcc-builder/build/sdcc-build/orig/sdcc/src/pic14/gen.c:7035:genAssign
                      00916 ;;      1109 rIdx = r0x1051 
00AF   01??           00917         CLRF    r0x119D
                      00918 ;;; /home/sdcc-builder/build/sdcc-build/orig/sdcc/src/pic14/gen.c:2316:resultRemat *{*
                      00919 ;;; /home/sdcc-builder/build/sdcc-build/orig/sdcc/src/pic14/gen.c:6927:genAssign *{*
                      00920 ;; ***  genAssign  6928
                      00921 ;;      694 register type nRegs=2
                      00922 ;;      line = 6937 result AOP_REG=r0x1052, size=2, left -=-, size=0, right AOP_LIT=0x00, size=2
                      00923 ;; ***  genAssign  7023
                      00924 ;; >>> /home/sdcc-builder/build/sdcc-build/orig/sdcc/src/pic14/gen.c:7035:genAssign
                      00925 ;;      1109 rIdx = r0x1052 
00B0   01??           00926         CLRF    r0x119E
                      00927 ;; ***  genAssign  7023
                      00928 ;; >>> /home/sdcc-builder/build/sdcc-build/orig/sdcc/src/pic14/gen.c:7035:genAssign
                      00929 ;;      1109 rIdx = r0x1053 
00B1   01??           00930         CLRF    r0x119F
                      00931 ;;; /home/sdcc-builder/build/sdcc-build/orig/sdcc/src/pic14/gen.c:2316:resultRemat *{*
                      00932 ;;; /home/sdcc-builder/build/sdcc-build/orig/sdcc/src/pic14/gen.c:2760:genLabel *{*
                      00933 ;; ***  genLabel  2763
                      00934 ;;; /home/sdcc-builder/build/sdcc-build/orig/sdcc/src/pic14/gen.c:2316:resultRemat *{*
                      00935 ;;; /home/sdcc-builder/build/sdcc-build/orig/sdcc/src/pic14/gen.c:3583:genCmpLt *{*
                      00936 ;; ***  genCmpLt  3584
                      00937 ;;      694 register type nRegs=2
                      00938 ;; ***  aopForSym 315
                      00939 ;;      327 sym->rname = _main_c_1_28, size = 2
                      00940 ;;; /home/sdcc-builder/build/sdcc-build/orig/sdcc/src/pic14/gen.c:3294:genCmp *{*
                      00941 ;; ***  mov2w  1381  offset=1
gpasm-1.4.0 #1106 (Oct  6 2014) obj\Debug\mai   2-26-2021  01:02:42         PAGE 19


LOC    OBJECT CODE    LINE  SOURCE TEXT
  VALUE

                      00942 ;; >>> /home/sdcc-builder/build/sdcc-build/orig/sdcc/src/pic14/gen.c:1386:mov2w
                      00943 ;;      1109 rIdx = r0x1051 
00B2                  00944 _00124_DS_
00B2   ???? ????      00945         BANKSEL r0x119D
00B4   08??           00946         MOVF    r0x119D,W
                      00947 ;; >>> /home/sdcc-builder/build/sdcc-build/orig/sdcc/src/pic14/gen.c:3462:genCmp
00B5   3E80           00948         ADDLW   0x80
                      00949 ;; >>> /home/sdcc-builder/build/sdcc-build/orig/sdcc/src/pic14/gen.c:3463:genCmp
00B6   00??           00950         MOVWF   r0x11A0
                      00951 ;; ***  mov2w  1381  offset=1
                      00952 ;; >>> /home/sdcc-builder/build/sdcc-build/orig/sdcc/src/pic14/gen.c:1386:mov2w
                      00953 ;;      1009
                      00954 ;;      1028  _main_c_1_28   offset=1
00B7   ???? ????      00955         BANKSEL _main_c_1_28
00B9   08??           00956         MOVF    (_main_c_1_28 + 1),W
                      00957 ;; >>> /home/sdcc-builder/build/sdcc-build/orig/sdcc/src/pic14/gen.c:3465:genCmp
00BA   3E80           00958         ADDLW   0x80
                      00959 ;; >>> /home/sdcc-builder/build/sdcc-build/orig/sdcc/src/pic14/gen.c:3466:genCmp
00BB   ???? ????      00960         BANKSEL r0x11A0
00BD   02??           00961         SUBWF   r0x11A0,W
                      00962 ;; >>> /home/sdcc-builder/build/sdcc-build/orig/sdcc/src/pic14/gen.c:3477:genCmp
00BE   1D03           00963         BTFSS   STATUS,2
                      00964 ;; >>> /home/sdcc-builder/build/sdcc-build/orig/sdcc/src/pic14/gen.c:3478:genCmp
                      00965 ;; ***  popGetLabel  key=104, label offset 4
00BF   2???           00966         GOTO    _00208_DS_
                      00967 ;; >>> /home/sdcc-builder/build/sdcc-build/orig/sdcc/src/pic14/gen.c:3269:pic14_mov2w_regOrLit
                      00968 ;;      1009
                      00969 ;;      1028  _main_c_1_28   offset=0
00C0   ???? ????      00970         BANKSEL _main_c_1_28
00C2   08??           00971         MOVF    _main_c_1_28,W
                      00972 ;; >>> /home/sdcc-builder/build/sdcc-build/orig/sdcc/src/pic14/gen.c:3480:genCmp
                      00973 ;;      1109 rIdx = r0x1050 
00C3   ???? ????      00974         BANKSEL r0x119C
00C5   02??           00975         SUBWF   r0x119C,W
                      00976 ;;; /home/sdcc-builder/build/sdcc-build/orig/sdcc/src/pic14/gen.c:3237:genSkipc *{*
                      00977 ;; >>> /home/sdcc-builder/build/sdcc-build/orig/sdcc/src/pic14/gen.c:3242:genSkipc
00C6                  00978 _00208_DS_
00C6   1803           00979         BTFSC   STATUS,0
                      00980 ;; >>> /home/sdcc-builder/build/sdcc-build/orig/sdcc/src/pic14/gen.c:3246:genSkipc
                      00981 ;; ***  popGetLabel  key=24, label offset 4
00C7   2???           00982         GOTO    _00128_DS_
                      00983 ;;genSkipc:3247: created from rifx:027A5DF4
                      00984 ;;; /home/sdcc-builder/build/sdcc-build/orig/sdcc/src/pic14/gen.c:2316:resultRemat *{*
                      00985 ;;; /home/sdcc-builder/build/sdcc-build/orig/sdcc/src/pic14/gen.c:2316:resultRemat *{*
                      00986 ;; ***  genPlus  611
                      00987 ;;; /home/sdcc-builder/build/sdcc-build/orig/sdcc/src/pic14/genarith.c:612:genPlus *{*
                      00988 ;;      694 register type nRegs=2
                      00989 ;;      694 register type nRegs=2
                      00990 ;;      694 register type nRegs=2
                      00991 ;;      line = 618 result AOP_REG=r0x1054, size=2, left AOP_REG=r0x104E, size=2, right AOP_REG=r0x1052, 
                            size=2
                      00992 ;;; /home/sdcc-builder/build/sdcc-build/orig/sdcc/src/pic14/genarith.c:142:genPlusIncr *{*
                      00993 ;; ***  genPlusIncr  144
gpasm-1.4.0 #1106 (Oct  6 2014) obj\Debug\mai   2-26-2021  01:02:42         PAGE 20


LOC    OBJECT CODE    LINE  SOURCE TEXT
  VALUE

                      00994 ;;      result AOP_REG, left AOP_REG, right AOP_REG
                      00995 ;; ***  genPlus  717
                      00996 ;; >>> /home/sdcc-builder/build/sdcc-build/orig/sdcc/src/pic14/genarith.c:726:genPlus
                      00997 ;;      1109 rIdx = r0x1052 
                      00998         .line   31; "main.c"    printf("%d ",matrix[i][j]);
00C8   ???? ????      00999         BANKSEL r0x119E
00CA   08??           01000         MOVF    r0x119E,W
                      01001 ;; >>> /home/sdcc-builder/build/sdcc-build/orig/sdcc/src/pic14/genarith.c:735:genPlus
                      01002 ;;      1109 rIdx = r0x104E 
00CB   07??           01003         ADDWF   r0x119A,W
                      01004 ;; >>> /home/sdcc-builder/build/sdcc-build/orig/sdcc/src/pic14/genarith.c:736:genPlus
                      01005 ;;      1109 rIdx = r0x1054 
00CC   00??           01006         MOVWF   r0x11A0
                      01007 ;; >>> /home/sdcc-builder/build/sdcc-build/orig/sdcc/src/pic14/genarith.c:771:genPlus
                      01008 ;;      1109 rIdx = r0x104F 
00CD   08??           01009         MOVF    r0x119B,W
                      01010 ;; >>> /home/sdcc-builder/build/sdcc-build/orig/sdcc/src/pic14/genarith.c:772:genPlus
                      01011 ;;      1109 rIdx = r0x1055 
00CE   00??           01012         MOVWF   r0x11A1
                      01013 ;; >>> /home/sdcc-builder/build/sdcc-build/orig/sdcc/src/pic14/genarith.c:774:genPlus
                      01014 ;;      1109 rIdx = r0x1053 
00CF   08??           01015         MOVF    r0x119F,W
                      01016 ;; >>> /home/sdcc-builder/build/sdcc-build/orig/sdcc/src/pic14/genarith.c:775:genPlus
00D0   1803           01017         BTFSC   STATUS,0
                      01018 ;; >>> /home/sdcc-builder/build/sdcc-build/orig/sdcc/src/pic14/genarith.c:776:genPlus
                      01019 ;;      1109 rIdx = r0x1053 
00D1   0F??           01020         INCFSZ  r0x119F,W
                      01021 ;; >>> /home/sdcc-builder/build/sdcc-build/orig/sdcc/src/pic14/genarith.c:777:genPlus
                      01022 ;;      1109 rIdx = r0x1055 
00D2   07??           01023         ADDWF   r0x11A1,F
                      01024 ;;; /home/sdcc-builder/build/sdcc-build/orig/sdcc/src/pic14/gen.c:2316:resultRemat *{*
                      01025 ;;; /home/sdcc-builder/build/sdcc-build/orig/sdcc/src/pic14/gen.c:6162:genPointerGet *{*
                      01026 ;; ***  genPointerGet  6163
                      01027 ;;; /home/sdcc-builder/build/sdcc-build/orig/sdcc/src/pic14/gen.c:5944:genNearPointerGet *{*
                      01028 ;; ***  genNearPointerGet  5945
                      01029 ;;      694 register type nRegs=2
                      01030 ;; ***  genNearPointerGet  5961
                      01031 ;;      694 register type nRegs=2
                      01032 ;;; /home/sdcc-builder/build/sdcc-build/orig/sdcc/src/pic14/gen.c:1343:mov2w_op *{*
                      01033 ;; ***  mov2w  1381  offset=0
                      01034 ;; >>> /home/sdcc-builder/build/sdcc-build/orig/sdcc/src/pic14/gen.c:1386:mov2w
                      01035 ;;      1109 rIdx = r0x1054 
00D3   08??           01036         MOVF    r0x11A0,W
                      01037 ;; >>> /home/sdcc-builder/build/sdcc-build/orig/sdcc/src/pic14/gen.c:5602:setup_fsr
00D4   1283 1303      01038         BANKSEL FSR
00D6   0084           01039         MOVWF   FSR
                      01040 ;;; /home/sdcc-builder/build/sdcc-build/orig/sdcc/src/pic14/gen.c:5553:SetIrp *{*
                      01041 ;; >>> /home/sdcc-builder/build/sdcc-build/orig/sdcc/src/pic14/gen.c:5580:SetIrp
00D7   1383           01042         BCF     STATUS,7
                      01043 ;; >>> /home/sdcc-builder/build/sdcc-build/orig/sdcc/src/pic14/gen.c:5583:SetIrp
00D8   ???? ????      01044         BANKSEL r0x11A1
00DA   18??           01045         BTFSC   r0x11A1,0
                      01046 ;; >>> /home/sdcc-builder/build/sdcc-build/orig/sdcc/src/pic14/gen.c:5584:SetIrp
gpasm-1.4.0 #1106 (Oct  6 2014) obj\Debug\mai   2-26-2021  01:02:42         PAGE 21


LOC    OBJECT CODE    LINE  SOURCE TEXT
  VALUE

00DB   1783           01047         BSF     STATUS,7
                      01048 ;; ***  genNearPointerGet  5988
                      01049 ;; >>> /home/sdcc-builder/build/sdcc-build/orig/sdcc/src/pic14/gen.c:5995:genNearPointerGet
00DC   1283 1303      01050         BANKSEL INDF
00DE   0800           01051         MOVF    INDF,W
                      01052 ;; >>> /home/sdcc-builder/build/sdcc-build/orig/sdcc/src/pic14/gen.c:6002:genNearPointerGet
                      01053 ;;      1109 rIdx = r0x1056 
00DF   ???? ????      01054         BANKSEL r0x11A2
00E1   00??           01055         MOVWF   r0x11A2
                      01056 ;; >>> /home/sdcc-builder/build/sdcc-build/orig/sdcc/src/pic14/gen.c:5659:inc_fsr
00E2   1283 1303      01057         BANKSEL FSR
00E4   0A84           01058         INCF    FSR,F
                      01059 ;; >>> /home/sdcc-builder/build/sdcc-build/orig/sdcc/src/pic14/gen.c:5995:genNearPointerGet
00E5   0800           01060         MOVF    INDF,W
                      01061 ;; >>> /home/sdcc-builder/build/sdcc-build/orig/sdcc/src/pic14/gen.c:6002:genNearPointerGet
                      01062 ;;      1109 rIdx = r0x1057 
00E6   ???? ????      01063         BANKSEL r0x11A3
00E8   00??           01064         MOVWF   r0x11A3
                      01065 ;;; /home/sdcc-builder/build/sdcc-build/orig/sdcc/src/pic14/gen.c:2316:resultRemat *{*
                      01066 ;;; /home/sdcc-builder/build/sdcc-build/orig/sdcc/src/pic14/gen.c:7120:genCast *{*
                      01067 ;; ***  genCast  7121
                      01068 ;;      613
                      01069 ;;      aopForRemat 392
                      01070 ;;      418: rname ___str_4, val 0, const = 0
                      01071 ;;      694 register type nRegs=3
                      01072 ;;      833: aopGet AOP_PCODE type PO_IMMEDIATE
                      01073 ;;      ___str_4
                      01074 ;;      line = 7129 result AOP_REG=r0x1054, size=3, left -=-, size=0, right AOP_PCODE=___str_4, size=2
                      01075 ;; ***  genCast  7174
                      01076 ;;; /home/sdcc-builder/build/sdcc-build/orig/sdcc/src/pic14/gen.c:1343:mov2w_op *{*
                      01077 ;; >>> /home/sdcc-builder/build/sdcc-build/orig/sdcc/src/pic14/gen.c:1361:mov2w_op
00E9   30??           01078         MOVLW   high (___str_4 + 0)
                      01079 ;; >>> /home/sdcc-builder/build/sdcc-build/orig/sdcc/src/pic14/gen.c:1393:movwf
                      01080 ;;      1109 rIdx = r0x1055 
00EA   00??           01081         MOVWF   r0x11A1
                      01082 ;;; /home/sdcc-builder/build/sdcc-build/orig/sdcc/src/pic14/gen.c:1343:mov2w_op *{*
                      01083 ;; >>> /home/sdcc-builder/build/sdcc-build/orig/sdcc/src/pic14/gen.c:1361:mov2w_op
00EB   30??           01084         MOVLW   (___str_4 + 0)
                      01085 ;; >>> /home/sdcc-builder/build/sdcc-build/orig/sdcc/src/pic14/gen.c:1393:movwf
                      01086 ;;      1109 rIdx = r0x1054 
00EC   00??           01087         MOVWF   r0x11A0
                      01088 ;; >>> /home/sdcc-builder/build/sdcc-build/orig/sdcc/src/pic14/gen.c:7234:genCast
00ED   3080           01089         MOVLW   0x80
                      01090 ;; >>> /home/sdcc-builder/build/sdcc-build/orig/sdcc/src/pic14/gen.c:1393:movwf
                      01091 ;;      1109 rIdx = r0x1058 
00EE   00??           01092         MOVWF   r0x11A4
                      01093 ;;; /home/sdcc-builder/build/sdcc-build/orig/sdcc/src/pic14/gen.c:2316:resultRemat *{*
                      01094 ;;; /home/sdcc-builder/build/sdcc-build/orig/sdcc/src/pic14/gen.c:1928:genIpush *{*
                      01095 ;; ***  genIpush  1930 - WARNING no code generated
                      01096 ;;; /home/sdcc-builder/build/sdcc-build/orig/sdcc/src/pic14/gen.c:2316:resultRemat *{*
                      01097 ;;; /home/sdcc-builder/build/sdcc-build/orig/sdcc/src/pic14/gen.c:1928:genIpush *{*
                      01098 ;; ***  genIpush  1930 - WARNING no code generated
                      01099 ;;; /home/sdcc-builder/build/sdcc-build/orig/sdcc/src/pic14/gen.c:2316:resultRemat *{*
gpasm-1.4.0 #1106 (Oct  6 2014) obj\Debug\mai   2-26-2021  01:02:42         PAGE 22


LOC    OBJECT CODE    LINE  SOURCE TEXT
  VALUE

                      01100 ;;; /home/sdcc-builder/build/sdcc-build/orig/sdcc/src/pic14/gen.c:2086:genCall *{*
                      01101 ;; ***  genCall  2088
                      01102 ;;; /home/sdcc-builder/build/sdcc-build/orig/sdcc/src/pic14/gen.c:1801:saveRegisters *{*
                      01103 ;; ***  saveRegisters  1803
                      01104 ;; >>> /home/sdcc-builder/build/sdcc-build/orig/sdcc/src/pic14/gen.c:2173:genCall
00EF   ???? ????      01105         PAGESEL _printf
                      01106 ;; >>> /home/sdcc-builder/build/sdcc-build/orig/sdcc/src/pic14/gen.c:2175:genCall
00F1   2???           01107         CALL    _printf
                      01108 ;; >>> /home/sdcc-builder/build/sdcc-build/orig/sdcc/src/pic14/gen.c:2181:genCall
00F2   ???? ????      01109         PAGESEL $
                      01110 ;;; /home/sdcc-builder/build/sdcc-build/orig/sdcc/src/pic14/gen.c:1845:unsaveRegisters *{*
                      01111 ;; ***  unsaveRegisters  1847
                      01112 ;;; /home/sdcc-builder/build/sdcc-build/orig/sdcc/src/pic14/gen.c:2316:resultRemat *{*
                      01113 ;;; /home/sdcc-builder/build/sdcc-build/orig/sdcc/src/pic14/gen.c:3619:genCmpEq *{*
                      01114 ;; ***  genCmpEq  3620
                      01115 ;; ifx is non-null
                      01116 ;;      694 register type nRegs=2
                      01117 ;;      694 register type nRegs=2
                      01118 ;;      line = 3631 result AOP_CRY=0x00, size=0, left AOP_REG=r0x1050, size=2, right AOP_REG=r0x1048, si
                            ze=2
                      01119 ;; ***  mov2w  1381  offset=0
                      01120 ;; >>> /home/sdcc-builder/build/sdcc-build/orig/sdcc/src/pic14/gen.c:1386:mov2w
                      01121 ;;      1109 rIdx = r0x1048 
                      01122         .line   32; "main.c"    if (j==c-1)  //this is the second row of the matrix
00F4   ???? ????      01123         BANKSEL r0x1195
00F6   08??           01124         MOVF    r0x1195,W
                      01125 ;; >>> /home/sdcc-builder/build/sdcc-build/orig/sdcc/src/pic14/gen.c:3703:genCmpEq
                      01126 ;;      1109 rIdx = r0x1050 
00F7   06??           01127         XORWF   r0x119C,W
                      01128 ;; >>> /home/sdcc-builder/build/sdcc-build/orig/sdcc/src/pic14/gen.c:3705:genCmpEq
00F8   1D03           01129         BTFSS   STATUS,2
                      01130 ;; >>> /home/sdcc-builder/build/sdcc-build/orig/sdcc/src/pic14/gen.c:3708:genCmpEq
                      01131 ;; ***  popGetLabel  key=21, label offset 4
00F9   2???           01132         GOTO    _00125_DS_
                      01133 ;; ***  mov2w  1381  offset=1
                      01134 ;; >>> /home/sdcc-builder/build/sdcc-build/orig/sdcc/src/pic14/gen.c:1386:mov2w
                      01135 ;;      1109 rIdx = r0x1049 
00FA   08??           01136         MOVF    r0x1194,W
                      01137 ;; >>> /home/sdcc-builder/build/sdcc-build/orig/sdcc/src/pic14/gen.c:3703:genCmpEq
                      01138 ;;      1109 rIdx = r0x1051 
00FB   06??           01139         XORWF   r0x119D,W
                      01140 ;; >>> /home/sdcc-builder/build/sdcc-build/orig/sdcc/src/pic14/gen.c:3705:genCmpEq
00FC   1D03           01141         BTFSS   STATUS,2
                      01142 ;; >>> /home/sdcc-builder/build/sdcc-build/orig/sdcc/src/pic14/gen.c:3708:genCmpEq
                      01143 ;; ***  popGetLabel  key=21, label offset 4
00FD   2???           01144         GOTO    _00125_DS_
                      01145 ;;; /home/sdcc-builder/build/sdcc-build/orig/sdcc/src/pic14/gen.c:2316:resultRemat *{*
                      01146 ;;; /home/sdcc-builder/build/sdcc-build/orig/sdcc/src/pic14/gen.c:2316:resultRemat *{*
                      01147 ;;; /home/sdcc-builder/build/sdcc-build/orig/sdcc/src/pic14/gen.c:7120:genCast *{*
                      01148 ;; ***  genCast  7121
                      01149 ;;      613
                      01150 ;;      aopForRemat 392
                      01151 ;;      418: rname ___str_5, val 0, const = 0
gpasm-1.4.0 #1106 (Oct  6 2014) obj\Debug\mai   2-26-2021  01:02:42         PAGE 23


LOC    OBJECT CODE    LINE  SOURCE TEXT
  VALUE

                      01152 ;;      694 register type nRegs=3
                      01153 ;;      833: aopGet AOP_PCODE type PO_IMMEDIATE
                      01154 ;;      ___str_5
                      01155 ;;      line = 7129 result AOP_REG=r0x1054, size=3, left -=-, size=0, right AOP_PCODE=___str_5, size=2
                      01156 ;; ***  genCast  7174
                      01157 ;;; /home/sdcc-builder/build/sdcc-build/orig/sdcc/src/pic14/gen.c:1343:mov2w_op *{*
                      01158 ;; >>> /home/sdcc-builder/build/sdcc-build/orig/sdcc/src/pic14/gen.c:1361:mov2w_op
                      01159         .line   34; "main.c"    printf("\n\n");
00FE   30??           01160         MOVLW   high (___str_5 + 0)
                      01161 ;; >>> /home/sdcc-builder/build/sdcc-build/orig/sdcc/src/pic14/gen.c:1393:movwf
                      01162 ;;      1109 rIdx = r0x1055 
00FF   00??           01163         MOVWF   r0x11A1
                      01164 ;;; /home/sdcc-builder/build/sdcc-build/orig/sdcc/src/pic14/gen.c:1343:mov2w_op *{*
                      01165 ;; >>> /home/sdcc-builder/build/sdcc-build/orig/sdcc/src/pic14/gen.c:1361:mov2w_op
0100   30??           01166         MOVLW   (___str_5 + 0)
                      01167 ;; >>> /home/sdcc-builder/build/sdcc-build/orig/sdcc/src/pic14/gen.c:1393:movwf
                      01168 ;;      1109 rIdx = r0x1054 
0101   00??           01169         MOVWF   r0x11A0
                      01170 ;; >>> /home/sdcc-builder/build/sdcc-build/orig/sdcc/src/pic14/gen.c:7234:genCast
0102   3080           01171         MOVLW   0x80
                      01172 ;; >>> /home/sdcc-builder/build/sdcc-build/orig/sdcc/src/pic14/gen.c:1393:movwf
                      01173 ;;      1109 rIdx = r0x1056 
0103   00??           01174         MOVWF   r0x11A2
                      01175 ;;; /home/sdcc-builder/build/sdcc-build/orig/sdcc/src/pic14/gen.c:2316:resultRemat *{*
                      01176 ;;; /home/sdcc-builder/build/sdcc-build/orig/sdcc/src/pic14/gen.c:1928:genIpush *{*
                      01177 ;; ***  genIpush  1930 - WARNING no code generated
                      01178 ;;; /home/sdcc-builder/build/sdcc-build/orig/sdcc/src/pic14/gen.c:2316:resultRemat *{*
                      01179 ;;; /home/sdcc-builder/build/sdcc-build/orig/sdcc/src/pic14/gen.c:2086:genCall *{*
                      01180 ;; ***  genCall  2088
                      01181 ;;; /home/sdcc-builder/build/sdcc-build/orig/sdcc/src/pic14/gen.c:1801:saveRegisters *{*
                      01182 ;; ***  saveRegisters  1803
                      01183 ;; >>> /home/sdcc-builder/build/sdcc-build/orig/sdcc/src/pic14/gen.c:2173:genCall
0104   ???? ????      01184         PAGESEL _printf
                      01185 ;; >>> /home/sdcc-builder/build/sdcc-build/orig/sdcc/src/pic14/gen.c:2175:genCall
0106   2???           01186         CALL    _printf
                      01187 ;; >>> /home/sdcc-builder/build/sdcc-build/orig/sdcc/src/pic14/gen.c:2181:genCall
0107   ???? ????      01188         PAGESEL $
                      01189 ;;; /home/sdcc-builder/build/sdcc-build/orig/sdcc/src/pic14/gen.c:1845:unsaveRegisters *{*
                      01190 ;; ***  unsaveRegisters  1847
                      01191 ;;; /home/sdcc-builder/build/sdcc-build/orig/sdcc/src/pic14/gen.c:2316:resultRemat *{*
                      01192 ;;; /home/sdcc-builder/build/sdcc-build/orig/sdcc/src/pic14/gen.c:2760:genLabel *{*
                      01193 ;; ***  genLabel  2763
                      01194 ;;; /home/sdcc-builder/build/sdcc-build/orig/sdcc/src/pic14/gen.c:2316:resultRemat *{*
                      01195 ;; ***  genPlus  611
                      01196 ;;; /home/sdcc-builder/build/sdcc-build/orig/sdcc/src/pic14/genarith.c:612:genPlus *{*
                      01197 ;;      694 register type nRegs=2
                      01198 ;;      575
                      01199 ;;      line = 618 result AOP_REG=r0x1052, size=2, left AOP_REG=r0x1052, size=2, right AOP_LIT=0x02, siz
                            e=1
                      01200 ;;; /home/sdcc-builder/build/sdcc-build/orig/sdcc/src/pic14/genarith.c:142:genPlusIncr *{*
                      01201 ;; ***  genPlusIncr  144
                      01202 ;;      result AOP_REG, left AOP_REG, right AOP_LIT
                      01203 ;;      genPlusIncr  156
gpasm-1.4.0 #1106 (Oct  6 2014) obj\Debug\mai   2-26-2021  01:02:42         PAGE 24


LOC    OBJECT CODE    LINE  SOURCE TEXT
  VALUE

                      01204 ;;      genPlusIncr  180
                      01205 ;;      adding lit to something. size 2
                      01206 ;;; /home/sdcc-builder/build/sdcc-build/orig/sdcc/src/pic14/genarith.c:269:genAddLit *{*
                      01207 ;; ***  genAddLit  270
                      01208 ;; hi = 0       genAddLit  328
                      01209 ;; >>> /home/sdcc-builder/build/sdcc-build/orig/sdcc/src/pic14/genarith.c:344:genAddLit
0109                  01210 _00125_DS_
                      01211         .line   29; "main.c"    for (j=0;j<c;j++)
0109   3002           01212         MOVLW   0x02
                      01213 ;; >>> /home/sdcc-builder/build/sdcc-build/orig/sdcc/src/pic14/genarith.c:345:genAddLit
                      01214 ;;      1109 rIdx = r0x1052 
010A   ???? ????      01215         BANKSEL r0x119E
010C   07??           01216         ADDWF   r0x119E,F
                      01217 ;; >>> /home/sdcc-builder/build/sdcc-build/orig/sdcc/src/pic14/genarith.c:346:genAddLit
010D   1803           01218         BTFSC   STATUS,0
                      01219 ;; >>> /home/sdcc-builder/build/sdcc-build/orig/sdcc/src/pic14/genarith.c:347:genAddLit
                      01220 ;;      1109 rIdx = r0x1053 
010E   0A??           01221         INCF    r0x119F,F
                      01222 ;; ***  addSign  861
                      01223 ;;; /home/sdcc-builder/build/sdcc-build/orig/sdcc/src/pic14/genarith.c:862:addSign *{*
                      01224 ;;; /home/sdcc-builder/build/sdcc-build/orig/sdcc/src/pic14/gen.c:2316:resultRemat *{*
                      01225 ;; ***  genPlus  611
                      01226 ;;; /home/sdcc-builder/build/sdcc-build/orig/sdcc/src/pic14/genarith.c:612:genPlus *{*
                      01227 ;;      694 register type nRegs=2
                      01228 ;;      575
                      01229 ;;      line = 618 result AOP_REG=r0x1050, size=2, left AOP_REG=r0x1050, size=2, right AOP_LIT=0x01, siz
                            e=1
                      01230 ;;; /home/sdcc-builder/build/sdcc-build/orig/sdcc/src/pic14/genarith.c:142:genPlusIncr *{*
                      01231 ;; ***  genPlusIncr  144
                      01232 ;;      result AOP_REG, left AOP_REG, right AOP_LIT
                      01233 ;;      genPlusIncr  156
                      01234 ;; >>> /home/sdcc-builder/build/sdcc-build/orig/sdcc/src/pic14/genarith.c:168:genPlusIncr
                      01235 ;;      1109 rIdx = r0x1050 
010F   0A??           01236         INCF    r0x119C,F
                      01237 ;; >>> /home/sdcc-builder/build/sdcc-build/orig/sdcc/src/pic14/genarith.c:172:genPlusIncr
0110   1903           01238         BTFSC   STATUS,2
                      01239 ;; >>> /home/sdcc-builder/build/sdcc-build/orig/sdcc/src/pic14/genarith.c:173:genPlusIncr
                      01240 ;;      1109 rIdx = r0x1051 
0111   0A??           01241         INCF    r0x119D,F
                      01242 ;;; /home/sdcc-builder/build/sdcc-build/orig/sdcc/src/pic14/gen.c:2316:resultRemat *{*
                      01243 ;;; /home/sdcc-builder/build/sdcc-build/orig/sdcc/src/pic14/gen.c:2778:genGoto *{*
                      01244 ;; >>> /home/sdcc-builder/build/sdcc-build/orig/sdcc/src/pic14/gen.c:2780:genGoto
                      01245 ;; ***  popGetLabel  key=20, label offset 4
0112   2???           01246         GOTO    _00124_DS_
                      01247 ;;; /home/sdcc-builder/build/sdcc-build/orig/sdcc/src/pic14/gen.c:2316:resultRemat *{*
                      01248 ;;; /home/sdcc-builder/build/sdcc-build/orig/sdcc/src/pic14/gen.c:2760:genLabel *{*
                      01249 ;; ***  genLabel  2763
                      01250 ;;; /home/sdcc-builder/build/sdcc-build/orig/sdcc/src/pic14/gen.c:2316:resultRemat *{*
                      01251 ;; ***  genPlus  611
                      01252 ;;; /home/sdcc-builder/build/sdcc-build/orig/sdcc/src/pic14/genarith.c:612:genPlus *{*
                      01253 ;;      694 register type nRegs=2
                      01254 ;;      575
                      01255 ;;      line = 618 result AOP_REG=r0x104C, size=2, left AOP_REG=r0x104C, size=2, right AOP_LIT=0x14, siz
gpasm-1.4.0 #1106 (Oct  6 2014) obj\Debug\mai   2-26-2021  01:02:42         PAGE 25


LOC    OBJECT CODE    LINE  SOURCE TEXT
  VALUE

                            e=1
                      01256 ;;; /home/sdcc-builder/build/sdcc-build/orig/sdcc/src/pic14/genarith.c:142:genPlusIncr *{*
                      01257 ;; ***  genPlusIncr  144
                      01258 ;;      result AOP_REG, left AOP_REG, right AOP_LIT
                      01259 ;;      genPlusIncr  156
                      01260 ;;      adding lit to something. size 2
                      01261 ;;; /home/sdcc-builder/build/sdcc-build/orig/sdcc/src/pic14/genarith.c:269:genAddLit *{*
                      01262 ;; ***  genAddLit  270
                      01263 ;; hi = 0       genAddLit  328
                      01264 ;; >>> /home/sdcc-builder/build/sdcc-build/orig/sdcc/src/pic14/genarith.c:344:genAddLit
0113                  01265 _00128_DS_
                      01266         .line   27; "main.c"    for(i=0;i<r;i++)
0113   3014           01267         MOVLW   0x14
                      01268 ;; >>> /home/sdcc-builder/build/sdcc-build/orig/sdcc/src/pic14/genarith.c:345:genAddLit
                      01269 ;;      1109 rIdx = r0x104C 
0114   ???? ????      01270         BANKSEL r0x1198
0116   07??           01271         ADDWF   r0x1198,F
                      01272 ;; >>> /home/sdcc-builder/build/sdcc-build/orig/sdcc/src/pic14/genarith.c:346:genAddLit
0117   1803           01273         BTFSC   STATUS,0
                      01274 ;; >>> /home/sdcc-builder/build/sdcc-build/orig/sdcc/src/pic14/genarith.c:347:genAddLit
                      01275 ;;      1109 rIdx = r0x104D 
0118   0A??           01276         INCF    r0x1199,F
                      01277 ;; ***  addSign  861
                      01278 ;;; /home/sdcc-builder/build/sdcc-build/orig/sdcc/src/pic14/genarith.c:862:addSign *{*
                      01279 ;;; /home/sdcc-builder/build/sdcc-build/orig/sdcc/src/pic14/gen.c:2316:resultRemat *{*
                      01280 ;; ***  genPlus  611
                      01281 ;;; /home/sdcc-builder/build/sdcc-build/orig/sdcc/src/pic14/genarith.c:612:genPlus *{*
                      01282 ;;      694 register type nRegs=2
                      01283 ;;      575
                      01284 ;;      line = 618 result AOP_REG=r0x104A, size=2, left AOP_REG=r0x104A, size=2, right AOP_LIT=0x01, siz
                            e=1
                      01285 ;;; /home/sdcc-builder/build/sdcc-build/orig/sdcc/src/pic14/genarith.c:142:genPlusIncr *{*
                      01286 ;; ***  genPlusIncr  144
                      01287 ;;      result AOP_REG, left AOP_REG, right AOP_LIT
                      01288 ;;      genPlusIncr  156
                      01289 ;; >>> /home/sdcc-builder/build/sdcc-build/orig/sdcc/src/pic14/genarith.c:168:genPlusIncr
                      01290 ;;      1109 rIdx = r0x104A 
0119   0A??           01291         INCF    r0x1196,F
                      01292 ;; >>> /home/sdcc-builder/build/sdcc-build/orig/sdcc/src/pic14/genarith.c:172:genPlusIncr
011A   1903           01293         BTFSC   STATUS,2
                      01294 ;; >>> /home/sdcc-builder/build/sdcc-build/orig/sdcc/src/pic14/genarith.c:173:genPlusIncr
                      01295 ;;      1109 rIdx = r0x104B 
011B   0A??           01296         INCF    r0x1197,F
                      01297 ;;; /home/sdcc-builder/build/sdcc-build/orig/sdcc/src/pic14/gen.c:2316:resultRemat *{*
                      01298 ;;; /home/sdcc-builder/build/sdcc-build/orig/sdcc/src/pic14/gen.c:2778:genGoto *{*
                      01299 ;; >>> /home/sdcc-builder/build/sdcc-build/orig/sdcc/src/pic14/gen.c:2780:genGoto
                      01300 ;; ***  popGetLabel  key=23, label offset 4
011C   2???           01301         GOTO    _00127_DS_
                      01302 ;;; /home/sdcc-builder/build/sdcc-build/orig/sdcc/src/pic14/gen.c:2316:resultRemat *{*
                      01303 ;;; /home/sdcc-builder/build/sdcc-build/orig/sdcc/src/pic14/gen.c:2760:genLabel *{*
                      01304 ;; ***  genLabel  2763
                      01305 ;;; /home/sdcc-builder/build/sdcc-build/orig/sdcc/src/pic14/gen.c:2316:resultRemat *{*
                      01306 ;;; /home/sdcc-builder/build/sdcc-build/orig/sdcc/src/pic14/gen.c:2316:resultRemat *{*
gpasm-1.4.0 #1106 (Oct  6 2014) obj\Debug\mai   2-26-2021  01:02:42         PAGE 26


LOC    OBJECT CODE    LINE  SOURCE TEXT
  VALUE

                      01307 ;;; /home/sdcc-builder/build/sdcc-build/orig/sdcc/src/pic14/gen.c:6927:genAssign *{*
                      01308 ;; ***  genAssign  6928
                      01309 ;;      694 register type nRegs=2
                      01310 ;;      line = 6937 result AOP_REG=r0x104A, size=2, left -=-, size=0, right AOP_LIT=0x00, size=2
                      01311 ;; ***  genAssign  7023
                      01312 ;; >>> /home/sdcc-builder/build/sdcc-build/orig/sdcc/src/pic14/gen.c:7035:genAssign
                      01313 ;;      1109 rIdx = r0x104A 
011D                  01314 _00110_DS_
                      01315         .line   40; "main.c"    for(f=0;f<r;f++)
011D   ???? ????      01316         BANKSEL r0x1196
011F   01??           01317         CLRF    r0x1196
                      01318 ;; ***  genAssign  7023
                      01319 ;; >>> /home/sdcc-builder/build/sdcc-build/orig/sdcc/src/pic14/gen.c:7035:genAssign
                      01320 ;;      1109 rIdx = r0x104B 
0120   01??           01321         CLRF    r0x1197
                      01322 ;;; /home/sdcc-builder/build/sdcc-build/orig/sdcc/src/pic14/gen.c:2316:resultRemat *{*
                      01323 ;;; /home/sdcc-builder/build/sdcc-build/orig/sdcc/src/pic14/gen.c:6927:genAssign *{*
                      01324 ;; ***  genAssign  6928
                      01325 ;;      694 register type nRegs=2
                      01326 ;;      line = 6937 result AOP_REG=r0x104C, size=2, left -=-, size=0, right AOP_LIT=0x00, size=2
                      01327 ;; ***  genAssign  7023
                      01328 ;; >>> /home/sdcc-builder/build/sdcc-build/orig/sdcc/src/pic14/gen.c:7035:genAssign
                      01329 ;;      1109 rIdx = r0x104C 
0121   01??           01330         CLRF    r0x1198
                      01331 ;; ***  genAssign  7023
                      01332 ;; >>> /home/sdcc-builder/build/sdcc-build/orig/sdcc/src/pic14/gen.c:7035:genAssign
                      01333 ;;      1109 rIdx = r0x104D 
0122   01??           01334         CLRF    r0x1199
                      01335 ;;; /home/sdcc-builder/build/sdcc-build/orig/sdcc/src/pic14/gen.c:2316:resultRemat *{*
                      01336 ;;; /home/sdcc-builder/build/sdcc-build/orig/sdcc/src/pic14/gen.c:6927:genAssign *{*
                      01337 ;; ***  genAssign  6928
                      01338 ;;      694 register type nRegs=2
                      01339 ;;      line = 6937 result AOP_REG=r0x104E, size=2, left -=-, size=0, right AOP_LIT=0x00, size=2
                      01340 ;; ***  genAssign  7023
                      01341 ;; >>> /home/sdcc-builder/build/sdcc-build/orig/sdcc/src/pic14/gen.c:7035:genAssign
                      01342 ;;      1109 rIdx = r0x104E 
0123   01??           01343         CLRF    r0x119A
                      01344 ;; ***  genAssign  7023
                      01345 ;; >>> /home/sdcc-builder/build/sdcc-build/orig/sdcc/src/pic14/gen.c:7035:genAssign
                      01346 ;;      1109 rIdx = r0x104F 
0124   01??           01347         CLRF    r0x119B
                      01348 ;;; /home/sdcc-builder/build/sdcc-build/orig/sdcc/src/pic14/gen.c:2316:resultRemat *{*
                      01349 ;;; /home/sdcc-builder/build/sdcc-build/orig/sdcc/src/pic14/gen.c:2760:genLabel *{*
                      01350 ;; ***  genLabel  2763
                      01351 ;;; /home/sdcc-builder/build/sdcc-build/orig/sdcc/src/pic14/gen.c:2316:resultRemat *{*
                      01352 ;;; /home/sdcc-builder/build/sdcc-build/orig/sdcc/src/pic14/gen.c:3583:genCmpLt *{*
                      01353 ;; ***  genCmpLt  3584
                      01354 ;;      694 register type nRegs=2
                      01355 ;; ***  aopForSym 315
                      01356 ;;      327 sym->rname = _main_r_1_28, size = 2
                      01357 ;;; /home/sdcc-builder/build/sdcc-build/orig/sdcc/src/pic14/gen.c:3294:genCmp *{*
                      01358 ;; ***  mov2w  1381  offset=1
                      01359 ;; >>> /home/sdcc-builder/build/sdcc-build/orig/sdcc/src/pic14/gen.c:1386:mov2w
gpasm-1.4.0 #1106 (Oct  6 2014) obj\Debug\mai   2-26-2021  01:02:42         PAGE 27


LOC    OBJECT CODE    LINE  SOURCE TEXT
  VALUE

                      01360 ;;      1109 rIdx = r0x104B 
0125                  01361 _00133_DS_
0125   ???? ????      01362         BANKSEL r0x1197
0127   08??           01363         MOVF    r0x1197,W
                      01364 ;; >>> /home/sdcc-builder/build/sdcc-build/orig/sdcc/src/pic14/gen.c:3462:genCmp
0128   3E80           01365         ADDLW   0x80
                      01366 ;; >>> /home/sdcc-builder/build/sdcc-build/orig/sdcc/src/pic14/gen.c:3463:genCmp
0129   00??           01367         MOVWF   r0x11A5
                      01368 ;; ***  mov2w  1381  offset=1
                      01369 ;; >>> /home/sdcc-builder/build/sdcc-build/orig/sdcc/src/pic14/gen.c:1386:mov2w
                      01370 ;;      1009
                      01371 ;;      1028  _main_r_1_28   offset=1
012A   ???? ????      01372         BANKSEL _main_r_1_28
012C   08??           01373         MOVF    (_main_r_1_28 + 1),W
                      01374 ;; >>> /home/sdcc-builder/build/sdcc-build/orig/sdcc/src/pic14/gen.c:3465:genCmp
012D   3E80           01375         ADDLW   0x80
                      01376 ;; >>> /home/sdcc-builder/build/sdcc-build/orig/sdcc/src/pic14/gen.c:3466:genCmp
012E   ???? ????      01377         BANKSEL r0x11A5
0130   02??           01378         SUBWF   r0x11A5,W
                      01379 ;; >>> /home/sdcc-builder/build/sdcc-build/orig/sdcc/src/pic14/gen.c:3477:genCmp
0131   1D03           01380         BTFSS   STATUS,2
                      01381 ;; >>> /home/sdcc-builder/build/sdcc-build/orig/sdcc/src/pic14/gen.c:3478:genCmp
                      01382 ;; ***  popGetLabel  key=105, label offset 4
0132   2???           01383         GOTO    _00209_DS_
                      01384 ;; >>> /home/sdcc-builder/build/sdcc-build/orig/sdcc/src/pic14/gen.c:3269:pic14_mov2w_regOrLit
                      01385 ;;      1009
                      01386 ;;      1028  _main_r_1_28   offset=0
0133   ???? ????      01387         BANKSEL _main_r_1_28
0135   08??           01388         MOVF    _main_r_1_28,W
                      01389 ;; >>> /home/sdcc-builder/build/sdcc-build/orig/sdcc/src/pic14/gen.c:3480:genCmp
                      01390 ;;      1109 rIdx = r0x104A 
0136   ???? ????      01391         BANKSEL r0x1196
0138   02??           01392         SUBWF   r0x1196,W
                      01393 ;;; /home/sdcc-builder/build/sdcc-build/orig/sdcc/src/pic14/gen.c:3237:genSkipc *{*
                      01394 ;; >>> /home/sdcc-builder/build/sdcc-build/orig/sdcc/src/pic14/gen.c:3242:genSkipc
0139                  01395 _00209_DS_
0139   1803           01396         BTFSC   STATUS,0
                      01397 ;; >>> /home/sdcc-builder/build/sdcc-build/orig/sdcc/src/pic14/gen.c:3246:genSkipc
                      01398 ;; ***  popGetLabel  key=8, label offset 4
013A   2???           01399         GOTO    _00112_DS_
                      01400 ;;genSkipc:3247: created from rifx:027A5DF4
                      01401 ;;; /home/sdcc-builder/build/sdcc-build/orig/sdcc/src/pic14/gen.c:2316:resultRemat *{*
                      01402 ;;; /home/sdcc-builder/build/sdcc-build/orig/sdcc/src/pic14/gen.c:2316:resultRemat *{*
                      01403 ;; ***  genPlus  611
                      01404 ;;; /home/sdcc-builder/build/sdcc-build/orig/sdcc/src/pic14/genarith.c:612:genPlus *{*
                      01405 ;;      613
                      01406 ;;      aopForRemat 392
                      01407 ;;      418: rname _main_matrix_1_28, val 0, const = 0
                      01408 ;;      694 register type nRegs=2
                      01409 ;;      694 register type nRegs=2
                      01410 ;;      833: aopGet AOP_PCODE type PO_IMMEDIATE
                      01411 ;;      _main_matrix_1_28
                      01412 ;;      line = 618 result AOP_REG=r0x1050, size=2, left AOP_PCODE=_main_matrix_1_28, size=2, right AOP_R
gpasm-1.4.0 #1106 (Oct  6 2014) obj\Debug\mai   2-26-2021  01:02:42         PAGE 28


LOC    OBJECT CODE    LINE  SOURCE TEXT
  VALUE

                            EG=r0x104E, size=2
                      01413 ;;; /home/sdcc-builder/build/sdcc-build/orig/sdcc/src/pic14/genarith.c:142:genPlusIncr *{*
                      01414 ;; ***  genPlusIncr  144
                      01415 ;;      result AOP_REG, left AOP_PCODE, right AOP_REG
                      01416 ;; ***  genPlus  717
                      01417 ;;      833: aopGet AOP_PCODE type PO_IMMEDIATE
                      01418 ;;      _main_matrix_1_28
                      01419 ;; >>> /home/sdcc-builder/build/sdcc-build/orig/sdcc/src/pic14/genarith.c:726:genPlus
                      01420 ;;      1109 rIdx = r0x104E 
                      01421         .line   42; "main.c"    for (k=0;k<c;k++)
013B   ???? ????      01422         BANKSEL r0x119A
013D   08??           01423         MOVF    r0x119A,W
                      01424 ;; >>> /home/sdcc-builder/build/sdcc-build/orig/sdcc/src/pic14/genarith.c:735:genPlus
013E   3E??           01425         ADDLW   (_main_matrix_1_28 + 0)
                      01426 ;; >>> /home/sdcc-builder/build/sdcc-build/orig/sdcc/src/pic14/genarith.c:736:genPlus
                      01427 ;;      1109 rIdx = r0x1050 
013F   00??           01428         MOVWF   r0x119C
                      01429 ;; >>> /home/sdcc-builder/build/sdcc-build/orig/sdcc/src/pic14/genarith.c:771:genPlus
0140   30??           01430         MOVLW   high (_main_matrix_1_28 + 0)
                      01431 ;; >>> /home/sdcc-builder/build/sdcc-build/orig/sdcc/src/pic14/genarith.c:772:genPlus
                      01432 ;;      1109 rIdx = r0x1051 
0141   00??           01433         MOVWF   r0x119D
                      01434 ;; >>> /home/sdcc-builder/build/sdcc-build/orig/sdcc/src/pic14/genarith.c:774:genPlus
                      01435 ;;      1109 rIdx = r0x104F 
0142   08??           01436         MOVF    r0x119B,W
                      01437 ;; >>> /home/sdcc-builder/build/sdcc-build/orig/sdcc/src/pic14/genarith.c:775:genPlus
0143   1803           01438         BTFSC   STATUS,0
                      01439 ;; >>> /home/sdcc-builder/build/sdcc-build/orig/sdcc/src/pic14/genarith.c:776:genPlus
                      01440 ;;      1109 rIdx = r0x104F 
0144   0F??           01441         INCFSZ  r0x119B,W
                      01442 ;; >>> /home/sdcc-builder/build/sdcc-build/orig/sdcc/src/pic14/genarith.c:777:genPlus
                      01443 ;;      1109 rIdx = r0x1051 
0145   07??           01444         ADDWF   r0x119D,F
                      01445 ;;; /home/sdcc-builder/build/sdcc-build/orig/sdcc/src/pic14/gen.c:2316:resultRemat *{*
                      01446 ;;; /home/sdcc-builder/build/sdcc-build/orig/sdcc/src/pic14/gen.c:6927:genAssign *{*
                      01447 ;; ***  genAssign  6928
                      01448 ;;      694 register type nRegs=2
                      01449 ;;      line = 6937 result AOP_REG=r0x1052, size=2, left -=-, size=0, right AOP_LIT=0x00, size=2
                      01450 ;; ***  genAssign  7023
                      01451 ;; >>> /home/sdcc-builder/build/sdcc-build/orig/sdcc/src/pic14/gen.c:7035:genAssign
                      01452 ;;      1109 rIdx = r0x1052 
0146   01??           01453         CLRF    r0x119E
                      01454 ;; ***  genAssign  7023
                      01455 ;; >>> /home/sdcc-builder/build/sdcc-build/orig/sdcc/src/pic14/gen.c:7035:genAssign
                      01456 ;;      1109 rIdx = r0x1053 
0147   01??           01457         CLRF    r0x119F
                      01458 ;;; /home/sdcc-builder/build/sdcc-build/orig/sdcc/src/pic14/gen.c:2316:resultRemat *{*
                      01459 ;;; /home/sdcc-builder/build/sdcc-build/orig/sdcc/src/pic14/gen.c:6927:genAssign *{*
                      01460 ;; ***  genAssign  6928
                      01461 ;;      694 register type nRegs=2
                      01462 ;;      line = 6937 result AOP_REG=r0x1054, size=2, left -=-, size=0, right AOP_LIT=0x00, size=2
                      01463 ;; ***  genAssign  7023
                      01464 ;; >>> /home/sdcc-builder/build/sdcc-build/orig/sdcc/src/pic14/gen.c:7035:genAssign
gpasm-1.4.0 #1106 (Oct  6 2014) obj\Debug\mai   2-26-2021  01:02:42         PAGE 29


LOC    OBJECT CODE    LINE  SOURCE TEXT
  VALUE

                      01465 ;;      1109 rIdx = r0x1054 
0148   01??           01466         CLRF    r0x11A0
                      01467 ;; ***  genAssign  7023
                      01468 ;; >>> /home/sdcc-builder/build/sdcc-build/orig/sdcc/src/pic14/gen.c:7035:genAssign
                      01469 ;;      1109 rIdx = r0x1055 
0149   01??           01470         CLRF    r0x11A1
                      01471 ;;; /home/sdcc-builder/build/sdcc-build/orig/sdcc/src/pic14/gen.c:2316:resultRemat *{*
                      01472 ;;; /home/sdcc-builder/build/sdcc-build/orig/sdcc/src/pic14/gen.c:6927:genAssign *{*
                      01473 ;; ***  genAssign  6928
                      01474 ;;      694 register type nRegs=2
                      01475 ;;      line = 6937 result AOP_REG=r0x1056, size=2, left -=-, size=0, right AOP_LIT=0x00, size=2
                      01476 ;; ***  genAssign  7023
                      01477 ;; >>> /home/sdcc-builder/build/sdcc-build/orig/sdcc/src/pic14/gen.c:7035:genAssign
                      01478 ;;      1109 rIdx = r0x1056 
014A   01??           01479         CLRF    r0x11A2
                      01480 ;; ***  genAssign  7023
                      01481 ;; >>> /home/sdcc-builder/build/sdcc-build/orig/sdcc/src/pic14/gen.c:7035:genAssign
                      01482 ;;      1109 rIdx = r0x1057 
014B   01??           01483         CLRF    r0x11A3
                      01484 ;;; /home/sdcc-builder/build/sdcc-build/orig/sdcc/src/pic14/gen.c:2316:resultRemat *{*
                      01485 ;;; /home/sdcc-builder/build/sdcc-build/orig/sdcc/src/pic14/gen.c:2760:genLabel *{*
                      01486 ;; ***  genLabel  2763
                      01487 ;;; /home/sdcc-builder/build/sdcc-build/orig/sdcc/src/pic14/gen.c:2316:resultRemat *{*
                      01488 ;;; /home/sdcc-builder/build/sdcc-build/orig/sdcc/src/pic14/gen.c:3583:genCmpLt *{*
                      01489 ;; ***  genCmpLt  3584
                      01490 ;;      694 register type nRegs=2
                      01491 ;; ***  aopForSym 315
                      01492 ;;      327 sym->rname = _main_c_1_28, size = 2
                      01493 ;;; /home/sdcc-builder/build/sdcc-build/orig/sdcc/src/pic14/gen.c:3294:genCmp *{*
                      01494 ;; ***  mov2w  1381  offset=1
                      01495 ;; >>> /home/sdcc-builder/build/sdcc-build/orig/sdcc/src/pic14/gen.c:1386:mov2w
                      01496 ;;      1109 rIdx = r0x1053 
014C                  01497 _00130_DS_
014C   ???? ????      01498         BANKSEL r0x119F
014E   08??           01499         MOVF    r0x119F,W
                      01500 ;; >>> /home/sdcc-builder/build/sdcc-build/orig/sdcc/src/pic14/gen.c:3462:genCmp
014F   3E80           01501         ADDLW   0x80
                      01502 ;; >>> /home/sdcc-builder/build/sdcc-build/orig/sdcc/src/pic14/gen.c:3463:genCmp
0150   00??           01503         MOVWF   r0x11A5
                      01504 ;; ***  mov2w  1381  offset=1
                      01505 ;; >>> /home/sdcc-builder/build/sdcc-build/orig/sdcc/src/pic14/gen.c:1386:mov2w
                      01506 ;;      1009
                      01507 ;;      1028  _main_c_1_28   offset=1
0151   ???? ????      01508         BANKSEL _main_c_1_28
0153   08??           01509         MOVF    (_main_c_1_28 + 1),W
                      01510 ;; >>> /home/sdcc-builder/build/sdcc-build/orig/sdcc/src/pic14/gen.c:3465:genCmp
0154   3E80           01511         ADDLW   0x80
                      01512 ;; >>> /home/sdcc-builder/build/sdcc-build/orig/sdcc/src/pic14/gen.c:3466:genCmp
0155   ???? ????      01513         BANKSEL r0x11A5
0157   02??           01514         SUBWF   r0x11A5,W
                      01515 ;; >>> /home/sdcc-builder/build/sdcc-build/orig/sdcc/src/pic14/gen.c:3477:genCmp
0158   1D03           01516         BTFSS   STATUS,2
                      01517 ;; >>> /home/sdcc-builder/build/sdcc-build/orig/sdcc/src/pic14/gen.c:3478:genCmp
gpasm-1.4.0 #1106 (Oct  6 2014) obj\Debug\mai   2-26-2021  01:02:42         PAGE 30


LOC    OBJECT CODE    LINE  SOURCE TEXT
  VALUE

                      01518 ;; ***  popGetLabel  key=106, label offset 4
0159   2???           01519         GOTO    _00210_DS_
                      01520 ;; >>> /home/sdcc-builder/build/sdcc-build/orig/sdcc/src/pic14/gen.c:3269:pic14_mov2w_regOrLit
                      01521 ;;      1009
                      01522 ;;      1028  _main_c_1_28   offset=0
015A   ???? ????      01523         BANKSEL _main_c_1_28
015C   08??           01524         MOVF    _main_c_1_28,W
                      01525 ;; >>> /home/sdcc-builder/build/sdcc-build/orig/sdcc/src/pic14/gen.c:3480:genCmp
                      01526 ;;      1109 rIdx = r0x1052 
015D   ???? ????      01527         BANKSEL r0x119E
015F   02??           01528         SUBWF   r0x119E,W
                      01529 ;;; /home/sdcc-builder/build/sdcc-build/orig/sdcc/src/pic14/gen.c:3237:genSkipc *{*
                      01530 ;; >>> /home/sdcc-builder/build/sdcc-build/orig/sdcc/src/pic14/gen.c:3242:genSkipc
0160                  01531 _00210_DS_
0160   1803           01532         BTFSC   STATUS,0
                      01533 ;; >>> /home/sdcc-builder/build/sdcc-build/orig/sdcc/src/pic14/gen.c:3246:genSkipc
                      01534 ;; ***  popGetLabel  key=30, label offset 4
0161   2???           01535         GOTO    _00134_DS_
                      01536 ;;genSkipc:3247: created from rifx:027A5DF4
                      01537 ;;; /home/sdcc-builder/build/sdcc-build/orig/sdcc/src/pic14/gen.c:2316:resultRemat *{*
                      01538 ;;; /home/sdcc-builder/build/sdcc-build/orig/sdcc/src/pic14/gen.c:2316:resultRemat *{*
                      01539 ;; ***  genPlus  611
                      01540 ;;; /home/sdcc-builder/build/sdcc-build/orig/sdcc/src/pic14/genarith.c:612:genPlus *{*
                      01541 ;;      613
                      01542 ;;      aopForRemat 392
                      01543 ;;      418: rname _main_transpose_1_28, val 0, const = 0
                      01544 ;;      694 register type nRegs=2
                      01545 ;;      694 register type nRegs=2
                      01546 ;;      833: aopGet AOP_PCODE type PO_IMMEDIATE
                      01547 ;;      _main_transpose_1_28
                      01548 ;;      line = 618 result AOP_REG=r0x1058, size=2, left AOP_PCODE=_main_transpose_1_28, size=2, right AO
                            P_REG=r0x1054, size=2
                      01549 ;;; /home/sdcc-builder/build/sdcc-build/orig/sdcc/src/pic14/genarith.c:142:genPlusIncr *{*
                      01550 ;; ***  genPlusIncr  144
                      01551 ;;      result AOP_REG, left AOP_PCODE, right AOP_REG
                      01552 ;; ***  genPlus  717
                      01553 ;;      833: aopGet AOP_PCODE type PO_IMMEDIATE
                      01554 ;;      _main_transpose_1_28
                      01555 ;; >>> /home/sdcc-builder/build/sdcc-build/orig/sdcc/src/pic14/genarith.c:726:genPlus
                      01556 ;;      1109 rIdx = r0x1054 
                      01557         .line   44; "main.c"    transpose[k][f]=matrix[f][k];   // transpose is done by inversing i and 
                            j of the transpose array
0162   ???? ????      01558         BANKSEL r0x11A0
0164   08??           01559         MOVF    r0x11A0,W
                      01560 ;; >>> /home/sdcc-builder/build/sdcc-build/orig/sdcc/src/pic14/genarith.c:735:genPlus
0165   3E??           01561         ADDLW   (_main_transpose_1_28 + 0)
                      01562 ;; >>> /home/sdcc-builder/build/sdcc-build/orig/sdcc/src/pic14/genarith.c:736:genPlus
                      01563 ;;      1109 rIdx = r0x1058 
0166   00??           01564         MOVWF   r0x11A4
                      01565 ;; >>> /home/sdcc-builder/build/sdcc-build/orig/sdcc/src/pic14/genarith.c:771:genPlus
0167   30??           01566         MOVLW   high (_main_transpose_1_28 + 0)
                      01567 ;; >>> /home/sdcc-builder/build/sdcc-build/orig/sdcc/src/pic14/genarith.c:772:genPlus
                      01568 ;;      1109 rIdx = r0x1059 
gpasm-1.4.0 #1106 (Oct  6 2014) obj\Debug\mai   2-26-2021  01:02:42         PAGE 31


LOC    OBJECT CODE    LINE  SOURCE TEXT
  VALUE

0168   00??           01569         MOVWF   r0x11A5
                      01570 ;; >>> /home/sdcc-builder/build/sdcc-build/orig/sdcc/src/pic14/genarith.c:774:genPlus
                      01571 ;;      1109 rIdx = r0x1055 
0169   08??           01572         MOVF    r0x11A1,W
                      01573 ;; >>> /home/sdcc-builder/build/sdcc-build/orig/sdcc/src/pic14/genarith.c:775:genPlus
016A   1803           01574         BTFSC   STATUS,0
                      01575 ;; >>> /home/sdcc-builder/build/sdcc-build/orig/sdcc/src/pic14/genarith.c:776:genPlus
                      01576 ;;      1109 rIdx = r0x1055 
016B   0F??           01577         INCFSZ  r0x11A1,W
                      01578 ;; >>> /home/sdcc-builder/build/sdcc-build/orig/sdcc/src/pic14/genarith.c:777:genPlus
                      01579 ;;      1109 rIdx = r0x1059 
016C   07??           01580         ADDWF   r0x11A5,F
                      01581 ;;; /home/sdcc-builder/build/sdcc-build/orig/sdcc/src/pic14/gen.c:2316:resultRemat *{*
                      01582 ;; ***  genPlus  611
                      01583 ;;; /home/sdcc-builder/build/sdcc-build/orig/sdcc/src/pic14/genarith.c:612:genPlus *{*
                      01584 ;;      694 register type nRegs=2
                      01585 ;;      694 register type nRegs=2
                      01586 ;;      694 register type nRegs=2
                      01587 ;;      line = 618 result AOP_REG=r0x1058, size=2, left AOP_REG=r0x1058, size=2, right AOP_REG=r0x104C, 
                            size=2
                      01588 ;;; /home/sdcc-builder/build/sdcc-build/orig/sdcc/src/pic14/genarith.c:142:genPlusIncr *{*
                      01589 ;; ***  genPlusIncr  144
                      01590 ;;      result AOP_REG, left AOP_REG, right AOP_REG
                      01591 ;; ***  genPlus  717
                      01592 ;; >>> /home/sdcc-builder/build/sdcc-build/orig/sdcc/src/pic14/genarith.c:726:genPlus
                      01593 ;;      1109 rIdx = r0x104C 
016D   08??           01594         MOVF    r0x1198,W
                      01595 ;; >>> /home/sdcc-builder/build/sdcc-build/orig/sdcc/src/pic14/genarith.c:729:genPlus
                      01596 ;;      1109 rIdx = r0x1058 
016E   07??           01597         ADDWF   r0x11A4,F
                      01598 ;; >>> /home/sdcc-builder/build/sdcc-build/orig/sdcc/src/pic14/genarith.c:774:genPlus
                      01599 ;;      1109 rIdx = r0x104D 
016F   08??           01600         MOVF    r0x1199,W
                      01601 ;; >>> /home/sdcc-builder/build/sdcc-build/orig/sdcc/src/pic14/genarith.c:775:genPlus
0170   1803           01602         BTFSC   STATUS,0
                      01603 ;; >>> /home/sdcc-builder/build/sdcc-build/orig/sdcc/src/pic14/genarith.c:776:genPlus
                      01604 ;;      1109 rIdx = r0x104D 
0171   0F??           01605         INCFSZ  r0x1199,W
                      01606 ;; >>> /home/sdcc-builder/build/sdcc-build/orig/sdcc/src/pic14/genarith.c:777:genPlus
                      01607 ;;      1109 rIdx = r0x1059 
0172   07??           01608         ADDWF   r0x11A5,F
                      01609 ;;; /home/sdcc-builder/build/sdcc-build/orig/sdcc/src/pic14/gen.c:2316:resultRemat *{*
                      01610 ;; ***  genPlus  611
                      01611 ;;; /home/sdcc-builder/build/sdcc-build/orig/sdcc/src/pic14/genarith.c:612:genPlus *{*
                      01612 ;;      694 register type nRegs=2
                      01613 ;;      694 register type nRegs=2
                      01614 ;;      694 register type nRegs=2
                      01615 ;;      line = 618 result AOP_REG=r0x105A, size=2, left AOP_REG=r0x1050, size=2, right AOP_REG=r0x1056, 
                            size=2
                      01616 ;;; /home/sdcc-builder/build/sdcc-build/orig/sdcc/src/pic14/genarith.c:142:genPlusIncr *{*
                      01617 ;; ***  genPlusIncr  144
                      01618 ;;      result AOP_REG, left AOP_REG, right AOP_REG
                      01619 ;; ***  genPlus  717
gpasm-1.4.0 #1106 (Oct  6 2014) obj\Debug\mai   2-26-2021  01:02:42         PAGE 32


LOC    OBJECT CODE    LINE  SOURCE TEXT
  VALUE

                      01620 ;; >>> /home/sdcc-builder/build/sdcc-build/orig/sdcc/src/pic14/genarith.c:726:genPlus
                      01621 ;;      1109 rIdx = r0x1056 
0173   08??           01622         MOVF    r0x11A2,W
                      01623 ;; >>> /home/sdcc-builder/build/sdcc-build/orig/sdcc/src/pic14/genarith.c:735:genPlus
                      01624 ;;      1109 rIdx = r0x1050 
0174   07??           01625         ADDWF   r0x119C,W
                      01626 ;; >>> /home/sdcc-builder/build/sdcc-build/orig/sdcc/src/pic14/genarith.c:736:genPlus
                      01627 ;;      1109 rIdx = r0x105A 
0175   00??           01628         MOVWF   r0x11A6
                      01629 ;; >>> /home/sdcc-builder/build/sdcc-build/orig/sdcc/src/pic14/genarith.c:771:genPlus
                      01630 ;;      1109 rIdx = r0x1051 
0176   08??           01631         MOVF    r0x119D,W
                      01632 ;; >>> /home/sdcc-builder/build/sdcc-build/orig/sdcc/src/pic14/genarith.c:772:genPlus
                      01633 ;;      1109 rIdx = r0x105B 
0177   00??           01634         MOVWF   r0x11A7
                      01635 ;; >>> /home/sdcc-builder/build/sdcc-build/orig/sdcc/src/pic14/genarith.c:774:genPlus
                      01636 ;;      1109 rIdx = r0x1057 
0178   08??           01637         MOVF    r0x11A3,W
                      01638 ;; >>> /home/sdcc-builder/build/sdcc-build/orig/sdcc/src/pic14/genarith.c:775:genPlus
0179   1803           01639         BTFSC   STATUS,0
                      01640 ;; >>> /home/sdcc-builder/build/sdcc-build/orig/sdcc/src/pic14/genarith.c:776:genPlus
                      01641 ;;      1109 rIdx = r0x1057 
017A   0F??           01642         INCFSZ  r0x11A3,W
                      01643 ;; >>> /home/sdcc-builder/build/sdcc-build/orig/sdcc/src/pic14/genarith.c:777:genPlus
                      01644 ;;      1109 rIdx = r0x105B 
017B   07??           01645         ADDWF   r0x11A7,F
                      01646 ;;; /home/sdcc-builder/build/sdcc-build/orig/sdcc/src/pic14/gen.c:2316:resultRemat *{*
                      01647 ;;; /home/sdcc-builder/build/sdcc-build/orig/sdcc/src/pic14/gen.c:6162:genPointerGet *{*
                      01648 ;; ***  genPointerGet  6163
                      01649 ;;; /home/sdcc-builder/build/sdcc-build/orig/sdcc/src/pic14/gen.c:5944:genNearPointerGet *{*
                      01650 ;; ***  genNearPointerGet  5945
                      01651 ;;      694 register type nRegs=2
                      01652 ;; ***  genNearPointerGet  5961
                      01653 ;;      694 register type nRegs=2
                      01654 ;;; /home/sdcc-builder/build/sdcc-build/orig/sdcc/src/pic14/gen.c:1343:mov2w_op *{*
                      01655 ;; ***  mov2w  1381  offset=0
                      01656 ;; >>> /home/sdcc-builder/build/sdcc-build/orig/sdcc/src/pic14/gen.c:1386:mov2w
                      01657 ;;      1109 rIdx = r0x105A 
017C   08??           01658         MOVF    r0x11A6,W
                      01659 ;; >>> /home/sdcc-builder/build/sdcc-build/orig/sdcc/src/pic14/gen.c:5602:setup_fsr
017D   1283 1303      01660         BANKSEL FSR
017F   0084           01661         MOVWF   FSR
                      01662 ;;; /home/sdcc-builder/build/sdcc-build/orig/sdcc/src/pic14/gen.c:5553:SetIrp *{*
                      01663 ;; >>> /home/sdcc-builder/build/sdcc-build/orig/sdcc/src/pic14/gen.c:5580:SetIrp
0180   1383           01664         BCF     STATUS,7
                      01665 ;; >>> /home/sdcc-builder/build/sdcc-build/orig/sdcc/src/pic14/gen.c:5583:SetIrp
0181   ???? ????      01666         BANKSEL r0x11A7
0183   18??           01667         BTFSC   r0x11A7,0
                      01668 ;; >>> /home/sdcc-builder/build/sdcc-build/orig/sdcc/src/pic14/gen.c:5584:SetIrp
0184   1783           01669         BSF     STATUS,7
                      01670 ;; ***  genNearPointerGet  5988
                      01671 ;; >>> /home/sdcc-builder/build/sdcc-build/orig/sdcc/src/pic14/gen.c:5995:genNearPointerGet
0185   1283 1303      01672         BANKSEL INDF
gpasm-1.4.0 #1106 (Oct  6 2014) obj\Debug\mai   2-26-2021  01:02:42         PAGE 33


LOC    OBJECT CODE    LINE  SOURCE TEXT
  VALUE

0187   0800           01673         MOVF    INDF,W
                      01674 ;; >>> /home/sdcc-builder/build/sdcc-build/orig/sdcc/src/pic14/gen.c:6002:genNearPointerGet
                      01675 ;;      1109 rIdx = r0x105C 
0188   ???? ????      01676         BANKSEL r0x11A8
018A   00??           01677         MOVWF   r0x11A8
                      01678 ;; >>> /home/sdcc-builder/build/sdcc-build/orig/sdcc/src/pic14/gen.c:5659:inc_fsr
018B   1283 1303      01679         BANKSEL FSR
018D   0A84           01680         INCF    FSR,F
                      01681 ;; >>> /home/sdcc-builder/build/sdcc-build/orig/sdcc/src/pic14/gen.c:5995:genNearPointerGet
018E   0800           01682         MOVF    INDF,W
                      01683 ;; >>> /home/sdcc-builder/build/sdcc-build/orig/sdcc/src/pic14/gen.c:6002:genNearPointerGet
                      01684 ;;      1109 rIdx = r0x105D 
018F   ???? ????      01685         BANKSEL r0x11A9
0191   00??           01686         MOVWF   r0x11A9
                      01687 ;;; /home/sdcc-builder/build/sdcc-build/orig/sdcc/src/pic14/gen.c:2316:resultRemat *{*
                      01688 ;;; /home/sdcc-builder/build/sdcc-build/orig/sdcc/src/pic14/gen.c:6686:genPointerSet *{*
                      01689 ;; ***  genPointerSet  6687
                      01690 ;;; /home/sdcc-builder/build/sdcc-build/orig/sdcc/src/pic14/gen.c:6505:genNearPointerSet *{*
                      01691 ;; ***  genNearPointerSet  6506
                      01692 ;;      694 register type nRegs=2
                      01693 ;; ***  genNearPointerSet  6521
                      01694 ;;      694 register type nRegs=2
                      01695 ;;      line = 6523 result AOP_REG=r0x1058, size=2, left -=-, size=0, right AOP_REG=r0x105C, size=2
                      01696 ;;; /home/sdcc-builder/build/sdcc-build/orig/sdcc/src/pic14/gen.c:1343:mov2w_op *{*
                      01697 ;; ***  mov2w  1381  offset=0
                      01698 ;; >>> /home/sdcc-builder/build/sdcc-build/orig/sdcc/src/pic14/gen.c:1386:mov2w
                      01699 ;;      1109 rIdx = r0x1058 
0192   08??           01700         MOVF    r0x11A4,W
                      01701 ;; >>> /home/sdcc-builder/build/sdcc-build/orig/sdcc/src/pic14/gen.c:5602:setup_fsr
0193   1283 1303      01702         BANKSEL FSR
0195   0084           01703         MOVWF   FSR
                      01704 ;;; /home/sdcc-builder/build/sdcc-build/orig/sdcc/src/pic14/gen.c:5553:SetIrp *{*
                      01705 ;; >>> /home/sdcc-builder/build/sdcc-build/orig/sdcc/src/pic14/gen.c:5580:SetIrp
0196   1383           01706         BCF     STATUS,7
                      01707 ;; >>> /home/sdcc-builder/build/sdcc-build/orig/sdcc/src/pic14/gen.c:5583:SetIrp
0197   ???? ????      01708         BANKSEL r0x11A5
0199   18??           01709         BTFSC   r0x11A5,0
                      01710 ;; >>> /home/sdcc-builder/build/sdcc-build/orig/sdcc/src/pic14/gen.c:5584:SetIrp
019A   1783           01711         BSF     STATUS,7
                      01712 ;; ***  genNearPointerSet  6548
                      01713 ;; >>> /home/sdcc-builder/build/sdcc-build/orig/sdcc/src/pic14/gen.c:6564:genNearPointerSet
                      01714 ;;      1109 rIdx = r0x105C 
019B   08??           01715         MOVF    r0x11A8,W
                      01716 ;; >>> /home/sdcc-builder/build/sdcc-build/orig/sdcc/src/pic14/gen.c:6569:genNearPointerSet
019C   1283 1303      01717         BANKSEL INDF
019E   0080           01718         MOVWF   INDF
                      01719 ;; >>> /home/sdcc-builder/build/sdcc-build/orig/sdcc/src/pic14/gen.c:5659:inc_fsr
019F   0A84           01720         INCF    FSR,F
                      01721 ;; >>> /home/sdcc-builder/build/sdcc-build/orig/sdcc/src/pic14/gen.c:6564:genNearPointerSet
                      01722 ;;      1109 rIdx = r0x105D 
01A0   ???? ????      01723         BANKSEL r0x11A9
01A2   08??           01724         MOVF    r0x11A9,W
                      01725 ;; >>> /home/sdcc-builder/build/sdcc-build/orig/sdcc/src/pic14/gen.c:6569:genNearPointerSet
gpasm-1.4.0 #1106 (Oct  6 2014) obj\Debug\mai   2-26-2021  01:02:42         PAGE 34


LOC    OBJECT CODE    LINE  SOURCE TEXT
  VALUE

01A3   1283 1303      01726         BANKSEL INDF
01A5   0080           01727         MOVWF   INDF
                      01728 ;; ***  genNearPointerSet  6577
                      01729 ;; ***  genNearPointerSet  6603
                      01730 ;;; /home/sdcc-builder/build/sdcc-build/orig/sdcc/src/pic14/gen.c:2316:resultRemat *{*
                      01731 ;; ***  genPlus  611
                      01732 ;;; /home/sdcc-builder/build/sdcc-build/orig/sdcc/src/pic14/genarith.c:612:genPlus *{*
                      01733 ;;      694 register type nRegs=2
                      01734 ;;      575
                      01735 ;;      line = 618 result AOP_REG=r0x1054, size=2, left AOP_REG=r0x1054, size=2, right AOP_LIT=0x14, siz
                            e=1
                      01736 ;;; /home/sdcc-builder/build/sdcc-build/orig/sdcc/src/pic14/genarith.c:142:genPlusIncr *{*
                      01737 ;; ***  genPlusIncr  144
                      01738 ;;      result AOP_REG, left AOP_REG, right AOP_LIT
                      01739 ;;      genPlusIncr  156
                      01740 ;;      adding lit to something. size 2
                      01741 ;;; /home/sdcc-builder/build/sdcc-build/orig/sdcc/src/pic14/genarith.c:269:genAddLit *{*
                      01742 ;; ***  genAddLit  270
                      01743 ;; hi = 0       genAddLit  328
                      01744 ;; >>> /home/sdcc-builder/build/sdcc-build/orig/sdcc/src/pic14/genarith.c:344:genAddLit
                      01745         .line   42; "main.c"    for (k=0;k<c;k++)
01A6   3014           01746         MOVLW   0x14
                      01747 ;; >>> /home/sdcc-builder/build/sdcc-build/orig/sdcc/src/pic14/genarith.c:345:genAddLit
                      01748 ;;      1109 rIdx = r0x1054 
01A7   ???? ????      01749         BANKSEL r0x11A0
01A9   07??           01750         ADDWF   r0x11A0,F
                      01751 ;; >>> /home/sdcc-builder/build/sdcc-build/orig/sdcc/src/pic14/genarith.c:346:genAddLit
01AA   1803           01752         BTFSC   STATUS,0
                      01753 ;; >>> /home/sdcc-builder/build/sdcc-build/orig/sdcc/src/pic14/genarith.c:347:genAddLit
                      01754 ;;      1109 rIdx = r0x1055 
01AB   0A??           01755         INCF    r0x11A1,F
                      01756 ;; ***  addSign  861
                      01757 ;;; /home/sdcc-builder/build/sdcc-build/orig/sdcc/src/pic14/genarith.c:862:addSign *{*
                      01758 ;;; /home/sdcc-builder/build/sdcc-build/orig/sdcc/src/pic14/gen.c:2316:resultRemat *{*
                      01759 ;; ***  genPlus  611
                      01760 ;;; /home/sdcc-builder/build/sdcc-build/orig/sdcc/src/pic14/genarith.c:612:genPlus *{*
                      01761 ;;      694 register type nRegs=2
                      01762 ;;      575
                      01763 ;;      line = 618 result AOP_REG=r0x1056, size=2, left AOP_REG=r0x1056, size=2, right AOP_LIT=0x02, siz
                            e=1
                      01764 ;;; /home/sdcc-builder/build/sdcc-build/orig/sdcc/src/pic14/genarith.c:142:genPlusIncr *{*
                      01765 ;; ***  genPlusIncr  144
                      01766 ;;      result AOP_REG, left AOP_REG, right AOP_LIT
                      01767 ;;      genPlusIncr  156
                      01768 ;;      genPlusIncr  180
                      01769 ;;      adding lit to something. size 2
                      01770 ;;; /home/sdcc-builder/build/sdcc-build/orig/sdcc/src/pic14/genarith.c:269:genAddLit *{*
                      01771 ;; ***  genAddLit  270
                      01772 ;; hi = 0       genAddLit  328
                      01773 ;; >>> /home/sdcc-builder/build/sdcc-build/orig/sdcc/src/pic14/genarith.c:344:genAddLit
01AC   3002           01774         MOVLW   0x02
                      01775 ;; >>> /home/sdcc-builder/build/sdcc-build/orig/sdcc/src/pic14/genarith.c:345:genAddLit
                      01776 ;;      1109 rIdx = r0x1056 
gpasm-1.4.0 #1106 (Oct  6 2014) obj\Debug\mai   2-26-2021  01:02:42         PAGE 35


LOC    OBJECT CODE    LINE  SOURCE TEXT
  VALUE

01AD   07??           01777         ADDWF   r0x11A2,F
                      01778 ;; >>> /home/sdcc-builder/build/sdcc-build/orig/sdcc/src/pic14/genarith.c:346:genAddLit
01AE   1803           01779         BTFSC   STATUS,0
                      01780 ;; >>> /home/sdcc-builder/build/sdcc-build/orig/sdcc/src/pic14/genarith.c:347:genAddLit
                      01781 ;;      1109 rIdx = r0x1057 
01AF   0A??           01782         INCF    r0x11A3,F
                      01783 ;; ***  addSign  861
                      01784 ;;; /home/sdcc-builder/build/sdcc-build/orig/sdcc/src/pic14/genarith.c:862:addSign *{*
                      01785 ;;; /home/sdcc-builder/build/sdcc-build/orig/sdcc/src/pic14/gen.c:2316:resultRemat *{*
                      01786 ;; ***  genPlus  611
                      01787 ;;; /home/sdcc-builder/build/sdcc-build/orig/sdcc/src/pic14/genarith.c:612:genPlus *{*
                      01788 ;;      694 register type nRegs=2
                      01789 ;;      575
                      01790 ;;      line = 618 result AOP_REG=r0x1052, size=2, left AOP_REG=r0x1052, size=2, right AOP_LIT=0x01, siz
                            e=1
                      01791 ;;; /home/sdcc-builder/build/sdcc-build/orig/sdcc/src/pic14/genarith.c:142:genPlusIncr *{*
                      01792 ;; ***  genPlusIncr  144
                      01793 ;;      result AOP_REG, left AOP_REG, right AOP_LIT
                      01794 ;;      genPlusIncr  156
                      01795 ;; >>> /home/sdcc-builder/build/sdcc-build/orig/sdcc/src/pic14/genarith.c:168:genPlusIncr
                      01796 ;;      1109 rIdx = r0x1052 
01B0   0A??           01797         INCF    r0x119E,F
                      01798 ;; >>> /home/sdcc-builder/build/sdcc-build/orig/sdcc/src/pic14/genarith.c:172:genPlusIncr
01B1   1903           01799         BTFSC   STATUS,2
                      01800 ;; >>> /home/sdcc-builder/build/sdcc-build/orig/sdcc/src/pic14/genarith.c:173:genPlusIncr
                      01801 ;;      1109 rIdx = r0x1053 
01B2   0A??           01802         INCF    r0x119F,F
                      01803 ;;; /home/sdcc-builder/build/sdcc-build/orig/sdcc/src/pic14/gen.c:2316:resultRemat *{*
                      01804 ;;; /home/sdcc-builder/build/sdcc-build/orig/sdcc/src/pic14/gen.c:2778:genGoto *{*
                      01805 ;; >>> /home/sdcc-builder/build/sdcc-build/orig/sdcc/src/pic14/gen.c:2780:genGoto
                      01806 ;; ***  popGetLabel  key=26, label offset 4
01B3   2???           01807         GOTO    _00130_DS_
                      01808 ;;; /home/sdcc-builder/build/sdcc-build/orig/sdcc/src/pic14/gen.c:2316:resultRemat *{*
                      01809 ;;; /home/sdcc-builder/build/sdcc-build/orig/sdcc/src/pic14/gen.c:2760:genLabel *{*
                      01810 ;; ***  genLabel  2763
                      01811 ;;; /home/sdcc-builder/build/sdcc-build/orig/sdcc/src/pic14/gen.c:2316:resultRemat *{*
                      01812 ;; ***  genPlus  611
                      01813 ;;; /home/sdcc-builder/build/sdcc-build/orig/sdcc/src/pic14/genarith.c:612:genPlus *{*
                      01814 ;;      694 register type nRegs=2
                      01815 ;;      575
                      01816 ;;      line = 618 result AOP_REG=r0x104C, size=2, left AOP_REG=r0x104C, size=2, right AOP_LIT=0x02, siz
                            e=1
                      01817 ;;; /home/sdcc-builder/build/sdcc-build/orig/sdcc/src/pic14/genarith.c:142:genPlusIncr *{*
                      01818 ;; ***  genPlusIncr  144
                      01819 ;;      result AOP_REG, left AOP_REG, right AOP_LIT
                      01820 ;;      genPlusIncr  156
                      01821 ;;      genPlusIncr  180
                      01822 ;;      adding lit to something. size 2
                      01823 ;;; /home/sdcc-builder/build/sdcc-build/orig/sdcc/src/pic14/genarith.c:269:genAddLit *{*
                      01824 ;; ***  genAddLit  270
                      01825 ;; hi = 0       genAddLit  328
                      01826 ;; >>> /home/sdcc-builder/build/sdcc-build/orig/sdcc/src/pic14/genarith.c:344:genAddLit
01B4                  01827 _00134_DS_
gpasm-1.4.0 #1106 (Oct  6 2014) obj\Debug\mai   2-26-2021  01:02:42         PAGE 36


LOC    OBJECT CODE    LINE  SOURCE TEXT
  VALUE

                      01828         .line   40; "main.c"    for(f=0;f<r;f++)
01B4   3002           01829         MOVLW   0x02
                      01830 ;; >>> /home/sdcc-builder/build/sdcc-build/orig/sdcc/src/pic14/genarith.c:345:genAddLit
                      01831 ;;      1109 rIdx = r0x104C 
01B5   ???? ????      01832         BANKSEL r0x1198
01B7   07??           01833         ADDWF   r0x1198,F
                      01834 ;; >>> /home/sdcc-builder/build/sdcc-build/orig/sdcc/src/pic14/genarith.c:346:genAddLit
01B8   1803           01835         BTFSC   STATUS,0
                      01836 ;; >>> /home/sdcc-builder/build/sdcc-build/orig/sdcc/src/pic14/genarith.c:347:genAddLit
                      01837 ;;      1109 rIdx = r0x104D 
01B9   0A??           01838         INCF    r0x1199,F
                      01839 ;; ***  addSign  861
                      01840 ;;; /home/sdcc-builder/build/sdcc-build/orig/sdcc/src/pic14/genarith.c:862:addSign *{*
                      01841 ;;; /home/sdcc-builder/build/sdcc-build/orig/sdcc/src/pic14/gen.c:2316:resultRemat *{*
                      01842 ;; ***  genPlus  611
                      01843 ;;; /home/sdcc-builder/build/sdcc-build/orig/sdcc/src/pic14/genarith.c:612:genPlus *{*
                      01844 ;;      694 register type nRegs=2
                      01845 ;;      575
                      01846 ;;      line = 618 result AOP_REG=r0x104E, size=2, left AOP_REG=r0x104E, size=2, right AOP_LIT=0x14, siz
                            e=1
                      01847 ;;; /home/sdcc-builder/build/sdcc-build/orig/sdcc/src/pic14/genarith.c:142:genPlusIncr *{*
                      01848 ;; ***  genPlusIncr  144
                      01849 ;;      result AOP_REG, left AOP_REG, right AOP_LIT
                      01850 ;;      genPlusIncr  156
                      01851 ;;      adding lit to something. size 2
                      01852 ;;; /home/sdcc-builder/build/sdcc-build/orig/sdcc/src/pic14/genarith.c:269:genAddLit *{*
                      01853 ;; ***  genAddLit  270
                      01854 ;; hi = 0       genAddLit  328
                      01855 ;; >>> /home/sdcc-builder/build/sdcc-build/orig/sdcc/src/pic14/genarith.c:344:genAddLit
01BA   3014           01856         MOVLW   0x14
                      01857 ;; >>> /home/sdcc-builder/build/sdcc-build/orig/sdcc/src/pic14/genarith.c:345:genAddLit
                      01858 ;;      1109 rIdx = r0x104E 
01BB   07??           01859         ADDWF   r0x119A,F
                      01860 ;; >>> /home/sdcc-builder/build/sdcc-build/orig/sdcc/src/pic14/genarith.c:346:genAddLit
01BC   1803           01861         BTFSC   STATUS,0
                      01862 ;; >>> /home/sdcc-builder/build/sdcc-build/orig/sdcc/src/pic14/genarith.c:347:genAddLit
                      01863 ;;      1109 rIdx = r0x104F 
01BD   0A??           01864         INCF    r0x119B,F
                      01865 ;; ***  addSign  861
                      01866 ;;; /home/sdcc-builder/build/sdcc-build/orig/sdcc/src/pic14/genarith.c:862:addSign *{*
                      01867 ;;; /home/sdcc-builder/build/sdcc-build/orig/sdcc/src/pic14/gen.c:2316:resultRemat *{*
                      01868 ;; ***  genPlus  611
                      01869 ;;; /home/sdcc-builder/build/sdcc-build/orig/sdcc/src/pic14/genarith.c:612:genPlus *{*
                      01870 ;;      694 register type nRegs=2
                      01871 ;;      575
                      01872 ;;      line = 618 result AOP_REG=r0x104A, size=2, left AOP_REG=r0x104A, size=2, right AOP_LIT=0x01, siz
                            e=1
                      01873 ;;; /home/sdcc-builder/build/sdcc-build/orig/sdcc/src/pic14/genarith.c:142:genPlusIncr *{*
                      01874 ;; ***  genPlusIncr  144
                      01875 ;;      result AOP_REG, left AOP_REG, right AOP_LIT
                      01876 ;;      genPlusIncr  156
                      01877 ;; >>> /home/sdcc-builder/build/sdcc-build/orig/sdcc/src/pic14/genarith.c:168:genPlusIncr
                      01878 ;;      1109 rIdx = r0x104A 
gpasm-1.4.0 #1106 (Oct  6 2014) obj\Debug\mai   2-26-2021  01:02:42         PAGE 37


LOC    OBJECT CODE    LINE  SOURCE TEXT
  VALUE

01BE   0A??           01879         INCF    r0x1196,F
                      01880 ;; >>> /home/sdcc-builder/build/sdcc-build/orig/sdcc/src/pic14/genarith.c:172:genPlusIncr
01BF   1903           01881         BTFSC   STATUS,2
                      01882 ;; >>> /home/sdcc-builder/build/sdcc-build/orig/sdcc/src/pic14/genarith.c:173:genPlusIncr
                      01883 ;;      1109 rIdx = r0x104B 
01C0   0A??           01884         INCF    r0x1197,F
                      01885 ;;; /home/sdcc-builder/build/sdcc-build/orig/sdcc/src/pic14/gen.c:2316:resultRemat *{*
                      01886 ;;; /home/sdcc-builder/build/sdcc-build/orig/sdcc/src/pic14/gen.c:2778:genGoto *{*
                      01887 ;; >>> /home/sdcc-builder/build/sdcc-build/orig/sdcc/src/pic14/gen.c:2780:genGoto
                      01888 ;; ***  popGetLabel  key=29, label offset 4
01C1   2???           01889         GOTO    _00133_DS_
                      01890 ;;; /home/sdcc-builder/build/sdcc-build/orig/sdcc/src/pic14/gen.c:2316:resultRemat *{*
                      01891 ;;; /home/sdcc-builder/build/sdcc-build/orig/sdcc/src/pic14/gen.c:2760:genLabel *{*
                      01892 ;; ***  genLabel  2763
                      01893 ;;; /home/sdcc-builder/build/sdcc-build/orig/sdcc/src/pic14/gen.c:2316:resultRemat *{*
                      01894 ;;; /home/sdcc-builder/build/sdcc-build/orig/sdcc/src/pic14/gen.c:2316:resultRemat *{*
                      01895 ;;; /home/sdcc-builder/build/sdcc-build/orig/sdcc/src/pic14/gen.c:7120:genCast *{*
                      01896 ;; ***  genCast  7121
                      01897 ;;      613
                      01898 ;;      aopForRemat 392
                      01899 ;;      418: rname ___str_6, val 0, const = 0
                      01900 ;;      694 register type nRegs=3
                      01901 ;;      833: aopGet AOP_PCODE type PO_IMMEDIATE
                      01902 ;;      ___str_6
                      01903 ;;      line = 7129 result AOP_REG=r0x104A, size=3, left -=-, size=0, right AOP_PCODE=___str_6, size=2
                      01904 ;; ***  genCast  7174
                      01905 ;;; /home/sdcc-builder/build/sdcc-build/orig/sdcc/src/pic14/gen.c:1343:mov2w_op *{*
                      01906 ;; >>> /home/sdcc-builder/build/sdcc-build/orig/sdcc/src/pic14/gen.c:1361:mov2w_op
01C2                  01907 _00112_DS_
                      01908         .line   48; "main.c"    printf("\nTranspose matrix:\n");
01C2   30??           01909         MOVLW   high (___str_6 + 0)
                      01910 ;; >>> /home/sdcc-builder/build/sdcc-build/orig/sdcc/src/pic14/gen.c:1393:movwf
                      01911 ;;      1109 rIdx = r0x104B 
01C3   ???? ????      01912         BANKSEL r0x1197
01C5   00??           01913         MOVWF   r0x1197
                      01914 ;;; /home/sdcc-builder/build/sdcc-build/orig/sdcc/src/pic14/gen.c:1343:mov2w_op *{*
                      01915 ;; >>> /home/sdcc-builder/build/sdcc-build/orig/sdcc/src/pic14/gen.c:1361:mov2w_op
01C6   30??           01916         MOVLW   (___str_6 + 0)
                      01917 ;; >>> /home/sdcc-builder/build/sdcc-build/orig/sdcc/src/pic14/gen.c:1393:movwf
                      01918 ;;      1109 rIdx = r0x104A 
01C7   00??           01919         MOVWF   r0x1196
                      01920 ;; >>> /home/sdcc-builder/build/sdcc-build/orig/sdcc/src/pic14/gen.c:7234:genCast
01C8   3080           01921         MOVLW   0x80
                      01922 ;; >>> /home/sdcc-builder/build/sdcc-build/orig/sdcc/src/pic14/gen.c:1393:movwf
                      01923 ;;      1109 rIdx = r0x104C 
01C9   00??           01924         MOVWF   r0x1198
                      01925 ;;; /home/sdcc-builder/build/sdcc-build/orig/sdcc/src/pic14/gen.c:2316:resultRemat *{*
                      01926 ;;; /home/sdcc-builder/build/sdcc-build/orig/sdcc/src/pic14/gen.c:1928:genIpush *{*
                      01927 ;; ***  genIpush  1930 - WARNING no code generated
                      01928 ;;; /home/sdcc-builder/build/sdcc-build/orig/sdcc/src/pic14/gen.c:2316:resultRemat *{*
                      01929 ;;; /home/sdcc-builder/build/sdcc-build/orig/sdcc/src/pic14/gen.c:2086:genCall *{*
                      01930 ;; ***  genCall  2088
                      01931 ;;; /home/sdcc-builder/build/sdcc-build/orig/sdcc/src/pic14/gen.c:1801:saveRegisters *{*
gpasm-1.4.0 #1106 (Oct  6 2014) obj\Debug\mai   2-26-2021  01:02:42         PAGE 38


LOC    OBJECT CODE    LINE  SOURCE TEXT
  VALUE

                      01932 ;; ***  saveRegisters  1803
                      01933 ;; >>> /home/sdcc-builder/build/sdcc-build/orig/sdcc/src/pic14/gen.c:2173:genCall
01CA   ???? ????      01934         PAGESEL _printf
                      01935 ;; >>> /home/sdcc-builder/build/sdcc-build/orig/sdcc/src/pic14/gen.c:2175:genCall
01CC   2???           01936         CALL    _printf
                      01937 ;; >>> /home/sdcc-builder/build/sdcc-build/orig/sdcc/src/pic14/gen.c:2181:genCall
01CD   ???? ????      01938         PAGESEL $
                      01939 ;;; /home/sdcc-builder/build/sdcc-build/orig/sdcc/src/pic14/gen.c:1845:unsaveRegisters *{*
                      01940 ;; ***  unsaveRegisters  1847
                      01941 ;;; /home/sdcc-builder/build/sdcc-build/orig/sdcc/src/pic14/gen.c:2316:resultRemat *{*
                      01942 ;;; /home/sdcc-builder/build/sdcc-build/orig/sdcc/src/pic14/gen.c:2316:resultRemat *{*
                      01943 ;;; /home/sdcc-builder/build/sdcc-build/orig/sdcc/src/pic14/gen.c:2316:resultRemat *{*
                      01944 ;;; /home/sdcc-builder/build/sdcc-build/orig/sdcc/src/pic14/gen.c:6927:genAssign *{*
                      01945 ;; ***  genAssign  6928
                      01946 ;;      694 register type nRegs=2
                      01947 ;;      line = 6937 result AOP_REG=r0x104A, size=2, left -=-, size=0, right AOP_LIT=0x00, size=2
                      01948 ;; ***  genAssign  7023
                      01949 ;; >>> /home/sdcc-builder/build/sdcc-build/orig/sdcc/src/pic14/gen.c:7035:genAssign
                      01950 ;;      1109 rIdx = r0x104A 
                      01951         .line   49; "main.c"    for(k=0;k<r;k++)
01CF   ???? ????      01952         BANKSEL r0x1196
01D1   01??           01953         CLRF    r0x1196
                      01954 ;; ***  genAssign  7023
                      01955 ;; >>> /home/sdcc-builder/build/sdcc-build/orig/sdcc/src/pic14/gen.c:7035:genAssign
                      01956 ;;      1109 rIdx = r0x104B 
01D2   01??           01957         CLRF    r0x1197
                      01958 ;;; /home/sdcc-builder/build/sdcc-build/orig/sdcc/src/pic14/gen.c:2316:resultRemat *{*
                      01959 ;;; /home/sdcc-builder/build/sdcc-build/orig/sdcc/src/pic14/gen.c:6927:genAssign *{*
                      01960 ;; ***  genAssign  6928
                      01961 ;;      694 register type nRegs=2
                      01962 ;;      line = 6937 result AOP_REG=r0x104C, size=2, left -=-, size=0, right AOP_LIT=0x00, size=2
                      01963 ;; ***  genAssign  7023
                      01964 ;; >>> /home/sdcc-builder/build/sdcc-build/orig/sdcc/src/pic14/gen.c:7035:genAssign
                      01965 ;;      1109 rIdx = r0x104C 
01D3   01??           01966         CLRF    r0x1198
                      01967 ;; ***  genAssign  7023
                      01968 ;; >>> /home/sdcc-builder/build/sdcc-build/orig/sdcc/src/pic14/gen.c:7035:genAssign
                      01969 ;;      1109 rIdx = r0x104D 
01D4   01??           01970         CLRF    r0x1199
                      01971 ;;; /home/sdcc-builder/build/sdcc-build/orig/sdcc/src/pic14/gen.c:2316:resultRemat *{*
                      01972 ;;; /home/sdcc-builder/build/sdcc-build/orig/sdcc/src/pic14/gen.c:2760:genLabel *{*
                      01973 ;; ***  genLabel  2763
                      01974 ;;; /home/sdcc-builder/build/sdcc-build/orig/sdcc/src/pic14/gen.c:2316:resultRemat *{*
                      01975 ;;; /home/sdcc-builder/build/sdcc-build/orig/sdcc/src/pic14/gen.c:3583:genCmpLt *{*
                      01976 ;; ***  genCmpLt  3584
                      01977 ;;      694 register type nRegs=2
                      01978 ;; ***  aopForSym 315
                      01979 ;;      327 sym->rname = _main_r_1_28, size = 2
                      01980 ;;; /home/sdcc-builder/build/sdcc-build/orig/sdcc/src/pic14/gen.c:3294:genCmp *{*
                      01981 ;; ***  mov2w  1381  offset=1
                      01982 ;; >>> /home/sdcc-builder/build/sdcc-build/orig/sdcc/src/pic14/gen.c:1386:mov2w
                      01983 ;;      1109 rIdx = r0x104B 
01D5                  01984 _00139_DS_
gpasm-1.4.0 #1106 (Oct  6 2014) obj\Debug\mai   2-26-2021  01:02:42         PAGE 39


LOC    OBJECT CODE    LINE  SOURCE TEXT
  VALUE

01D5   ???? ????      01985         BANKSEL r0x1197
01D7   08??           01986         MOVF    r0x1197,W
                      01987 ;; >>> /home/sdcc-builder/build/sdcc-build/orig/sdcc/src/pic14/gen.c:3462:genCmp
01D8   3E80           01988         ADDLW   0x80
                      01989 ;; >>> /home/sdcc-builder/build/sdcc-build/orig/sdcc/src/pic14/gen.c:3463:genCmp
01D9   00??           01990         MOVWF   r0x11AA
                      01991 ;; ***  mov2w  1381  offset=1
                      01992 ;; >>> /home/sdcc-builder/build/sdcc-build/orig/sdcc/src/pic14/gen.c:1386:mov2w
                      01993 ;;      1009
                      01994 ;;      1028  _main_r_1_28   offset=1
01DA   ???? ????      01995         BANKSEL _main_r_1_28
01DC   08??           01996         MOVF    (_main_r_1_28 + 1),W
                      01997 ;; >>> /home/sdcc-builder/build/sdcc-build/orig/sdcc/src/pic14/gen.c:3465:genCmp
01DD   3E80           01998         ADDLW   0x80
                      01999 ;; >>> /home/sdcc-builder/build/sdcc-build/orig/sdcc/src/pic14/gen.c:3466:genCmp
01DE   ???? ????      02000         BANKSEL r0x11AA
01E0   02??           02001         SUBWF   r0x11AA,W
                      02002 ;; >>> /home/sdcc-builder/build/sdcc-build/orig/sdcc/src/pic14/gen.c:3477:genCmp
01E1   1D03           02003         BTFSS   STATUS,2
                      02004 ;; >>> /home/sdcc-builder/build/sdcc-build/orig/sdcc/src/pic14/gen.c:3478:genCmp
                      02005 ;; ***  popGetLabel  key=107, label offset 4
01E2   2???           02006         GOTO    _00211_DS_
                      02007 ;; >>> /home/sdcc-builder/build/sdcc-build/orig/sdcc/src/pic14/gen.c:3269:pic14_mov2w_regOrLit
                      02008 ;;      1009
                      02009 ;;      1028  _main_r_1_28   offset=0
01E3   ???? ????      02010         BANKSEL _main_r_1_28
01E5   08??           02011         MOVF    _main_r_1_28,W
                      02012 ;; >>> /home/sdcc-builder/build/sdcc-build/orig/sdcc/src/pic14/gen.c:3480:genCmp
                      02013 ;;      1109 rIdx = r0x104A 
01E6   ???? ????      02014         BANKSEL r0x1196
01E8   02??           02015         SUBWF   r0x1196,W
                      02016 ;;; /home/sdcc-builder/build/sdcc-build/orig/sdcc/src/pic14/gen.c:3237:genSkipc *{*
                      02017 ;; >>> /home/sdcc-builder/build/sdcc-build/orig/sdcc/src/pic14/gen.c:3242:genSkipc
01E9                  02018 _00211_DS_
01E9   1803           02019         BTFSC   STATUS,0
                      02020 ;; >>> /home/sdcc-builder/build/sdcc-build/orig/sdcc/src/pic14/gen.c:3246:genSkipc
                      02021 ;; ***  popGetLabel  key=12, label offset 4
01EA   2???           02022         GOTO    _00116_DS_
                      02023 ;;genSkipc:3247: created from rifx:027A5DF4
                      02024 ;;; /home/sdcc-builder/build/sdcc-build/orig/sdcc/src/pic14/gen.c:2316:resultRemat *{*
                      02025 ;;; /home/sdcc-builder/build/sdcc-build/orig/sdcc/src/pic14/gen.c:2316:resultRemat *{*
                      02026 ;; ***  genPlus  611
                      02027 ;;; /home/sdcc-builder/build/sdcc-build/orig/sdcc/src/pic14/genarith.c:612:genPlus *{*
                      02028 ;;      613
                      02029 ;;      aopForRemat 392
                      02030 ;;      418: rname _main_transpose_1_28, val 0, const = 0
                      02031 ;;      694 register type nRegs=2
                      02032 ;;      694 register type nRegs=2
                      02033 ;;      833: aopGet AOP_PCODE type PO_IMMEDIATE
                      02034 ;;      _main_transpose_1_28
                      02035 ;;      line = 618 result AOP_REG=r0x104E, size=2, left AOP_PCODE=_main_transpose_1_28, size=2, right AO
                            P_REG=r0x104C, size=2
                      02036 ;;; /home/sdcc-builder/build/sdcc-build/orig/sdcc/src/pic14/genarith.c:142:genPlusIncr *{*
gpasm-1.4.0 #1106 (Oct  6 2014) obj\Debug\mai   2-26-2021  01:02:42         PAGE 40


LOC    OBJECT CODE    LINE  SOURCE TEXT
  VALUE

                      02037 ;; ***  genPlusIncr  144
                      02038 ;;      result AOP_REG, left AOP_PCODE, right AOP_REG
                      02039 ;; ***  genPlus  717
                      02040 ;;      833: aopGet AOP_PCODE type PO_IMMEDIATE
                      02041 ;;      _main_transpose_1_28
                      02042 ;; >>> /home/sdcc-builder/build/sdcc-build/orig/sdcc/src/pic14/genarith.c:726:genPlus
                      02043 ;;      1109 rIdx = r0x104C 
                      02044         .line   51; "main.c"    for (f=0;f<c;f++)
01EB   ???? ????      02045         BANKSEL r0x1198
01ED   08??           02046         MOVF    r0x1198,W
                      02047 ;; >>> /home/sdcc-builder/build/sdcc-build/orig/sdcc/src/pic14/genarith.c:735:genPlus
01EE   3E??           02048         ADDLW   (_main_transpose_1_28 + 0)
                      02049 ;; >>> /home/sdcc-builder/build/sdcc-build/orig/sdcc/src/pic14/genarith.c:736:genPlus
                      02050 ;;      1109 rIdx = r0x104E 
01EF   00??           02051         MOVWF   r0x119A
                      02052 ;; >>> /home/sdcc-builder/build/sdcc-build/orig/sdcc/src/pic14/genarith.c:771:genPlus
01F0   30??           02053         MOVLW   high (_main_transpose_1_28 + 0)
                      02054 ;; >>> /home/sdcc-builder/build/sdcc-build/orig/sdcc/src/pic14/genarith.c:772:genPlus
                      02055 ;;      1109 rIdx = r0x104F 
01F1   00??           02056         MOVWF   r0x119B
                      02057 ;; >>> /home/sdcc-builder/build/sdcc-build/orig/sdcc/src/pic14/genarith.c:774:genPlus
                      02058 ;;      1109 rIdx = r0x104D 
01F2   08??           02059         MOVF    r0x1199,W
                      02060 ;; >>> /home/sdcc-builder/build/sdcc-build/orig/sdcc/src/pic14/genarith.c:775:genPlus
01F3   1803           02061         BTFSC   STATUS,0
                      02062 ;; >>> /home/sdcc-builder/build/sdcc-build/orig/sdcc/src/pic14/genarith.c:776:genPlus
                      02063 ;;      1109 rIdx = r0x104D 
01F4   0F??           02064         INCFSZ  r0x1199,W
                      02065 ;; >>> /home/sdcc-builder/build/sdcc-build/orig/sdcc/src/pic14/genarith.c:777:genPlus
                      02066 ;;      1109 rIdx = r0x104F 
01F5   07??           02067         ADDWF   r0x119B,F
                      02068 ;;; /home/sdcc-builder/build/sdcc-build/orig/sdcc/src/pic14/gen.c:2316:resultRemat *{*
                      02069 ;;; /home/sdcc-builder/build/sdcc-build/orig/sdcc/src/pic14/gen.c:6927:genAssign *{*
                      02070 ;; ***  genAssign  6928
                      02071 ;;      694 register type nRegs=2
                      02072 ;;      line = 6937 result AOP_REG=r0x1050, size=2, left -=-, size=0, right AOP_LIT=0x00, size=2
                      02073 ;; ***  genAssign  7023
                      02074 ;; >>> /home/sdcc-builder/build/sdcc-build/orig/sdcc/src/pic14/gen.c:7035:genAssign
                      02075 ;;      1109 rIdx = r0x1050 
01F6   01??           02076         CLRF    r0x119C
                      02077 ;; ***  genAssign  7023
                      02078 ;; >>> /home/sdcc-builder/build/sdcc-build/orig/sdcc/src/pic14/gen.c:7035:genAssign
                      02079 ;;      1109 rIdx = r0x1051 
01F7   01??           02080         CLRF    r0x119D
                      02081 ;;; /home/sdcc-builder/build/sdcc-build/orig/sdcc/src/pic14/gen.c:2316:resultRemat *{*
                      02082 ;;; /home/sdcc-builder/build/sdcc-build/orig/sdcc/src/pic14/gen.c:6927:genAssign *{*
                      02083 ;; ***  genAssign  6928
                      02084 ;;      694 register type nRegs=2
                      02085 ;;      line = 6937 result AOP_REG=r0x1052, size=2, left -=-, size=0, right AOP_LIT=0x00, size=2
                      02086 ;; ***  genAssign  7023
                      02087 ;; >>> /home/sdcc-builder/build/sdcc-build/orig/sdcc/src/pic14/gen.c:7035:genAssign
                      02088 ;;      1109 rIdx = r0x1052 
01F8   01??           02089         CLRF    r0x119E
gpasm-1.4.0 #1106 (Oct  6 2014) obj\Debug\mai   2-26-2021  01:02:42         PAGE 41


LOC    OBJECT CODE    LINE  SOURCE TEXT
  VALUE

                      02090 ;; ***  genAssign  7023
                      02091 ;; >>> /home/sdcc-builder/build/sdcc-build/orig/sdcc/src/pic14/gen.c:7035:genAssign
                      02092 ;;      1109 rIdx = r0x1053 
01F9   01??           02093         CLRF    r0x119F
                      02094 ;;; /home/sdcc-builder/build/sdcc-build/orig/sdcc/src/pic14/gen.c:2316:resultRemat *{*
                      02095 ;;; /home/sdcc-builder/build/sdcc-build/orig/sdcc/src/pic14/gen.c:2760:genLabel *{*
                      02096 ;; ***  genLabel  2763
                      02097 ;;; /home/sdcc-builder/build/sdcc-build/orig/sdcc/src/pic14/gen.c:2316:resultRemat *{*
                      02098 ;;; /home/sdcc-builder/build/sdcc-build/orig/sdcc/src/pic14/gen.c:3583:genCmpLt *{*
                      02099 ;; ***  genCmpLt  3584
                      02100 ;;      694 register type nRegs=2
                      02101 ;; ***  aopForSym 315
                      02102 ;;      327 sym->rname = _main_c_1_28, size = 2
                      02103 ;;; /home/sdcc-builder/build/sdcc-build/orig/sdcc/src/pic14/gen.c:3294:genCmp *{*
                      02104 ;; ***  mov2w  1381  offset=1
                      02105 ;; >>> /home/sdcc-builder/build/sdcc-build/orig/sdcc/src/pic14/gen.c:1386:mov2w
                      02106 ;;      1109 rIdx = r0x1051 
01FA                  02107 _00136_DS_
01FA   ???? ????      02108         BANKSEL r0x119D
01FC   08??           02109         MOVF    r0x119D,W
                      02110 ;; >>> /home/sdcc-builder/build/sdcc-build/orig/sdcc/src/pic14/gen.c:3462:genCmp
01FD   3E80           02111         ADDLW   0x80
                      02112 ;; >>> /home/sdcc-builder/build/sdcc-build/orig/sdcc/src/pic14/gen.c:3463:genCmp
01FE   00??           02113         MOVWF   r0x11AA
                      02114 ;; ***  mov2w  1381  offset=1
                      02115 ;; >>> /home/sdcc-builder/build/sdcc-build/orig/sdcc/src/pic14/gen.c:1386:mov2w
                      02116 ;;      1009
                      02117 ;;      1028  _main_c_1_28   offset=1
01FF   ???? ????      02118         BANKSEL _main_c_1_28
0201   08??           02119         MOVF    (_main_c_1_28 + 1),W
                      02120 ;; >>> /home/sdcc-builder/build/sdcc-build/orig/sdcc/src/pic14/gen.c:3465:genCmp
0202   3E80           02121         ADDLW   0x80
                      02122 ;; >>> /home/sdcc-builder/build/sdcc-build/orig/sdcc/src/pic14/gen.c:3466:genCmp
0203   ???? ????      02123         BANKSEL r0x11AA
0205   02??           02124         SUBWF   r0x11AA,W
                      02125 ;; >>> /home/sdcc-builder/build/sdcc-build/orig/sdcc/src/pic14/gen.c:3477:genCmp
0206   1D03           02126         BTFSS   STATUS,2
                      02127 ;; >>> /home/sdcc-builder/build/sdcc-build/orig/sdcc/src/pic14/gen.c:3478:genCmp
                      02128 ;; ***  popGetLabel  key=108, label offset 4
0207   2???           02129         GOTO    _00212_DS_
                      02130 ;; >>> /home/sdcc-builder/build/sdcc-build/orig/sdcc/src/pic14/gen.c:3269:pic14_mov2w_regOrLit
                      02131 ;;      1009
                      02132 ;;      1028  _main_c_1_28   offset=0
0208   ???? ????      02133         BANKSEL _main_c_1_28
020A   08??           02134         MOVF    _main_c_1_28,W
                      02135 ;; >>> /home/sdcc-builder/build/sdcc-build/orig/sdcc/src/pic14/gen.c:3480:genCmp
                      02136 ;;      1109 rIdx = r0x1050 
020B   ???? ????      02137         BANKSEL r0x119C
020D   02??           02138         SUBWF   r0x119C,W
                      02139 ;;; /home/sdcc-builder/build/sdcc-build/orig/sdcc/src/pic14/gen.c:3237:genSkipc *{*
                      02140 ;; >>> /home/sdcc-builder/build/sdcc-build/orig/sdcc/src/pic14/gen.c:3242:genSkipc
020E                  02141 _00212_DS_
020E   1803           02142         BTFSC   STATUS,0
gpasm-1.4.0 #1106 (Oct  6 2014) obj\Debug\mai   2-26-2021  01:02:42         PAGE 42


LOC    OBJECT CODE    LINE  SOURCE TEXT
  VALUE

                      02143 ;; >>> /home/sdcc-builder/build/sdcc-build/orig/sdcc/src/pic14/gen.c:3246:genSkipc
                      02144 ;; ***  popGetLabel  key=36, label offset 4
020F   2???           02145         GOTO    _00140_DS_
                      02146 ;;genSkipc:3247: created from rifx:027A5DF4
                      02147 ;;; /home/sdcc-builder/build/sdcc-build/orig/sdcc/src/pic14/gen.c:2316:resultRemat *{*
                      02148 ;;; /home/sdcc-builder/build/sdcc-build/orig/sdcc/src/pic14/gen.c:2316:resultRemat *{*
                      02149 ;; ***  genPlus  611
                      02150 ;;; /home/sdcc-builder/build/sdcc-build/orig/sdcc/src/pic14/genarith.c:612:genPlus *{*
                      02151 ;;      694 register type nRegs=2
                      02152 ;;      694 register type nRegs=2
                      02153 ;;      694 register type nRegs=2
                      02154 ;;      line = 618 result AOP_REG=r0x1054, size=2, left AOP_REG=r0x104E, size=2, right AOP_REG=r0x1052, 
                            size=2
                      02155 ;;; /home/sdcc-builder/build/sdcc-build/orig/sdcc/src/pic14/genarith.c:142:genPlusIncr *{*
                      02156 ;; ***  genPlusIncr  144
                      02157 ;;      result AOP_REG, left AOP_REG, right AOP_REG
                      02158 ;; ***  genPlus  717
                      02159 ;; >>> /home/sdcc-builder/build/sdcc-build/orig/sdcc/src/pic14/genarith.c:726:genPlus
                      02160 ;;      1109 rIdx = r0x1052 
                      02161         .line   53; "main.c"    printf("%d ",transpose[k][f]);
0210   ???? ????      02162         BANKSEL r0x119E
0212   08??           02163         MOVF    r0x119E,W
                      02164 ;; >>> /home/sdcc-builder/build/sdcc-build/orig/sdcc/src/pic14/genarith.c:735:genPlus
                      02165 ;;      1109 rIdx = r0x104E 
0213   07??           02166         ADDWF   r0x119A,W
                      02167 ;; >>> /home/sdcc-builder/build/sdcc-build/orig/sdcc/src/pic14/genarith.c:736:genPlus
                      02168 ;;      1109 rIdx = r0x1054 
0214   00??           02169         MOVWF   r0x11A0
                      02170 ;; >>> /home/sdcc-builder/build/sdcc-build/orig/sdcc/src/pic14/genarith.c:771:genPlus
                      02171 ;;      1109 rIdx = r0x104F 
0215   08??           02172         MOVF    r0x119B,W
                      02173 ;; >>> /home/sdcc-builder/build/sdcc-build/orig/sdcc/src/pic14/genarith.c:772:genPlus
                      02174 ;;      1109 rIdx = r0x1055 
0216   00??           02175         MOVWF   r0x11A1
                      02176 ;; >>> /home/sdcc-builder/build/sdcc-build/orig/sdcc/src/pic14/genarith.c:774:genPlus
                      02177 ;;      1109 rIdx = r0x1053 
0217   08??           02178         MOVF    r0x119F,W
                      02179 ;; >>> /home/sdcc-builder/build/sdcc-build/orig/sdcc/src/pic14/genarith.c:775:genPlus
0218   1803           02180         BTFSC   STATUS,0
                      02181 ;; >>> /home/sdcc-builder/build/sdcc-build/orig/sdcc/src/pic14/genarith.c:776:genPlus
                      02182 ;;      1109 rIdx = r0x1053 
0219   0F??           02183         INCFSZ  r0x119F,W
                      02184 ;; >>> /home/sdcc-builder/build/sdcc-build/orig/sdcc/src/pic14/genarith.c:777:genPlus
                      02185 ;;      1109 rIdx = r0x1055 
021A   07??           02186         ADDWF   r0x11A1,F
                      02187 ;;; /home/sdcc-builder/build/sdcc-build/orig/sdcc/src/pic14/gen.c:2316:resultRemat *{*
                      02188 ;;; /home/sdcc-builder/build/sdcc-build/orig/sdcc/src/pic14/gen.c:6162:genPointerGet *{*
                      02189 ;; ***  genPointerGet  6163
                      02190 ;;; /home/sdcc-builder/build/sdcc-build/orig/sdcc/src/pic14/gen.c:5944:genNearPointerGet *{*
                      02191 ;; ***  genNearPointerGet  5945
                      02192 ;;      694 register type nRegs=2
                      02193 ;; ***  genNearPointerGet  5961
                      02194 ;;      694 register type nRegs=2
gpasm-1.4.0 #1106 (Oct  6 2014) obj\Debug\mai   2-26-2021  01:02:42         PAGE 43


LOC    OBJECT CODE    LINE  SOURCE TEXT
  VALUE

                      02195 ;;; /home/sdcc-builder/build/sdcc-build/orig/sdcc/src/pic14/gen.c:1343:mov2w_op *{*
                      02196 ;; ***  mov2w  1381  offset=0
                      02197 ;; >>> /home/sdcc-builder/build/sdcc-build/orig/sdcc/src/pic14/gen.c:1386:mov2w
                      02198 ;;      1109 rIdx = r0x1054 
021B   08??           02199         MOVF    r0x11A0,W
                      02200 ;; >>> /home/sdcc-builder/build/sdcc-build/orig/sdcc/src/pic14/gen.c:5602:setup_fsr
021C   1283 1303      02201         BANKSEL FSR
021E   0084           02202         MOVWF   FSR
                      02203 ;;; /home/sdcc-builder/build/sdcc-build/orig/sdcc/src/pic14/gen.c:5553:SetIrp *{*
                      02204 ;; >>> /home/sdcc-builder/build/sdcc-build/orig/sdcc/src/pic14/gen.c:5580:SetIrp
021F   1383           02205         BCF     STATUS,7
                      02206 ;; >>> /home/sdcc-builder/build/sdcc-build/orig/sdcc/src/pic14/gen.c:5583:SetIrp
0220   ???? ????      02207         BANKSEL r0x11A1
0222   18??           02208         BTFSC   r0x11A1,0
                      02209 ;; >>> /home/sdcc-builder/build/sdcc-build/orig/sdcc/src/pic14/gen.c:5584:SetIrp
0223   1783           02210         BSF     STATUS,7
                      02211 ;; ***  genNearPointerGet  5988
                      02212 ;; >>> /home/sdcc-builder/build/sdcc-build/orig/sdcc/src/pic14/gen.c:5995:genNearPointerGet
0224   1283 1303      02213         BANKSEL INDF
0226   0800           02214         MOVF    INDF,W
                      02215 ;; >>> /home/sdcc-builder/build/sdcc-build/orig/sdcc/src/pic14/gen.c:6002:genNearPointerGet
                      02216 ;;      1109 rIdx = r0x1056 
0227   ???? ????      02217         BANKSEL r0x11A2
0229   00??           02218         MOVWF   r0x11A2
                      02219 ;; >>> /home/sdcc-builder/build/sdcc-build/orig/sdcc/src/pic14/gen.c:5659:inc_fsr
022A   1283 1303      02220         BANKSEL FSR
022C   0A84           02221         INCF    FSR,F
                      02222 ;; >>> /home/sdcc-builder/build/sdcc-build/orig/sdcc/src/pic14/gen.c:5995:genNearPointerGet
022D   0800           02223         MOVF    INDF,W
                      02224 ;; >>> /home/sdcc-builder/build/sdcc-build/orig/sdcc/src/pic14/gen.c:6002:genNearPointerGet
                      02225 ;;      1109 rIdx = r0x1057 
022E   ???? ????      02226         BANKSEL r0x11A3
0230   00??           02227         MOVWF   r0x11A3
                      02228 ;;; /home/sdcc-builder/build/sdcc-build/orig/sdcc/src/pic14/gen.c:2316:resultRemat *{*
                      02229 ;;; /home/sdcc-builder/build/sdcc-build/orig/sdcc/src/pic14/gen.c:7120:genCast *{*
                      02230 ;; ***  genCast  7121
                      02231 ;;      613
                      02232 ;;      aopForRemat 392
                      02233 ;;      418: rname ___str_4, val 0, const = 0
                      02234 ;;      694 register type nRegs=3
                      02235 ;;      833: aopGet AOP_PCODE type PO_IMMEDIATE
                      02236 ;;      ___str_4
                      02237 ;;      line = 7129 result AOP_REG=r0x1054, size=3, left -=-, size=0, right AOP_PCODE=___str_4, size=2
                      02238 ;; ***  genCast  7174
                      02239 ;;; /home/sdcc-builder/build/sdcc-build/orig/sdcc/src/pic14/gen.c:1343:mov2w_op *{*
                      02240 ;; >>> /home/sdcc-builder/build/sdcc-build/orig/sdcc/src/pic14/gen.c:1361:mov2w_op
0231   30??           02241         MOVLW   high (___str_4 + 0)
                      02242 ;; >>> /home/sdcc-builder/build/sdcc-build/orig/sdcc/src/pic14/gen.c:1393:movwf
                      02243 ;;      1109 rIdx = r0x1055 
0232   00??           02244         MOVWF   r0x11A1
                      02245 ;;; /home/sdcc-builder/build/sdcc-build/orig/sdcc/src/pic14/gen.c:1343:mov2w_op *{*
                      02246 ;; >>> /home/sdcc-builder/build/sdcc-build/orig/sdcc/src/pic14/gen.c:1361:mov2w_op
0233   30??           02247         MOVLW   (___str_4 + 0)
gpasm-1.4.0 #1106 (Oct  6 2014) obj\Debug\mai   2-26-2021  01:02:42         PAGE 44


LOC    OBJECT CODE    LINE  SOURCE TEXT
  VALUE

                      02248 ;; >>> /home/sdcc-builder/build/sdcc-build/orig/sdcc/src/pic14/gen.c:1393:movwf
                      02249 ;;      1109 rIdx = r0x1054 
0234   00??           02250         MOVWF   r0x11A0
                      02251 ;; >>> /home/sdcc-builder/build/sdcc-build/orig/sdcc/src/pic14/gen.c:7234:genCast
0235   3080           02252         MOVLW   0x80
                      02253 ;; >>> /home/sdcc-builder/build/sdcc-build/orig/sdcc/src/pic14/gen.c:1393:movwf
                      02254 ;;      1109 rIdx = r0x1058 
0236   00??           02255         MOVWF   r0x11A4
                      02256 ;;; /home/sdcc-builder/build/sdcc-build/orig/sdcc/src/pic14/gen.c:2316:resultRemat *{*
                      02257 ;;; /home/sdcc-builder/build/sdcc-build/orig/sdcc/src/pic14/gen.c:1928:genIpush *{*
                      02258 ;; ***  genIpush  1930 - WARNING no code generated
                      02259 ;;; /home/sdcc-builder/build/sdcc-build/orig/sdcc/src/pic14/gen.c:2316:resultRemat *{*
                      02260 ;;; /home/sdcc-builder/build/sdcc-build/orig/sdcc/src/pic14/gen.c:1928:genIpush *{*
                      02261 ;; ***  genIpush  1930 - WARNING no code generated
                      02262 ;;; /home/sdcc-builder/build/sdcc-build/orig/sdcc/src/pic14/gen.c:2316:resultRemat *{*
                      02263 ;;; /home/sdcc-builder/build/sdcc-build/orig/sdcc/src/pic14/gen.c:2086:genCall *{*
                      02264 ;; ***  genCall  2088
                      02265 ;;; /home/sdcc-builder/build/sdcc-build/orig/sdcc/src/pic14/gen.c:1801:saveRegisters *{*
                      02266 ;; ***  saveRegisters  1803
                      02267 ;; >>> /home/sdcc-builder/build/sdcc-build/orig/sdcc/src/pic14/gen.c:2173:genCall
0237   ???? ????      02268         PAGESEL _printf
                      02269 ;; >>> /home/sdcc-builder/build/sdcc-build/orig/sdcc/src/pic14/gen.c:2175:genCall
0239   2???           02270         CALL    _printf
                      02271 ;; >>> /home/sdcc-builder/build/sdcc-build/orig/sdcc/src/pic14/gen.c:2181:genCall
023A   ???? ????      02272         PAGESEL $
                      02273 ;;; /home/sdcc-builder/build/sdcc-build/orig/sdcc/src/pic14/gen.c:1845:unsaveRegisters *{*
                      02274 ;; ***  unsaveRegisters  1847
                      02275 ;;; /home/sdcc-builder/build/sdcc-build/orig/sdcc/src/pic14/gen.c:2316:resultRemat *{*
                      02276 ;;; /home/sdcc-builder/build/sdcc-build/orig/sdcc/src/pic14/gen.c:3619:genCmpEq *{*
                      02277 ;; ***  genCmpEq  3620
                      02278 ;; ifx is non-null
                      02279 ;;      694 register type nRegs=2
                      02280 ;;      694 register type nRegs=2
                      02281 ;;      line = 3631 result AOP_CRY=0x00, size=0, left AOP_REG=r0x1050, size=2, right AOP_REG=r0x1048, si
                            ze=2
                      02282 ;; ***  mov2w  1381  offset=0
                      02283 ;; >>> /home/sdcc-builder/build/sdcc-build/orig/sdcc/src/pic14/gen.c:1386:mov2w
                      02284 ;;      1109 rIdx = r0x1048 
                      02285         .line   54; "main.c"    if (f==c-1)  //this is the second row of the matrix
023C   ???? ????      02286         BANKSEL r0x1195
023E   08??           02287         MOVF    r0x1195,W
                      02288 ;; >>> /home/sdcc-builder/build/sdcc-build/orig/sdcc/src/pic14/gen.c:3703:genCmpEq
                      02289 ;;      1109 rIdx = r0x1050 
023F   06??           02290         XORWF   r0x119C,W
                      02291 ;; >>> /home/sdcc-builder/build/sdcc-build/orig/sdcc/src/pic14/gen.c:3705:genCmpEq
0240   1D03           02292         BTFSS   STATUS,2
                      02293 ;; >>> /home/sdcc-builder/build/sdcc-build/orig/sdcc/src/pic14/gen.c:3708:genCmpEq
                      02294 ;; ***  popGetLabel  key=33, label offset 4
0241   2???           02295         GOTO    _00137_DS_
                      02296 ;; ***  mov2w  1381  offset=1
                      02297 ;; >>> /home/sdcc-builder/build/sdcc-build/orig/sdcc/src/pic14/gen.c:1386:mov2w
                      02298 ;;      1109 rIdx = r0x1049 
0242   08??           02299         MOVF    r0x1194,W
gpasm-1.4.0 #1106 (Oct  6 2014) obj\Debug\mai   2-26-2021  01:02:42         PAGE 45


LOC    OBJECT CODE    LINE  SOURCE TEXT
  VALUE

                      02300 ;; >>> /home/sdcc-builder/build/sdcc-build/orig/sdcc/src/pic14/gen.c:3703:genCmpEq
                      02301 ;;      1109 rIdx = r0x1051 
0243   06??           02302         XORWF   r0x119D,W
                      02303 ;; >>> /home/sdcc-builder/build/sdcc-build/orig/sdcc/src/pic14/gen.c:3705:genCmpEq
0244   1D03           02304         BTFSS   STATUS,2
                      02305 ;; >>> /home/sdcc-builder/build/sdcc-build/orig/sdcc/src/pic14/gen.c:3708:genCmpEq
                      02306 ;; ***  popGetLabel  key=33, label offset 4
0245   2???           02307         GOTO    _00137_DS_
                      02308 ;;; /home/sdcc-builder/build/sdcc-build/orig/sdcc/src/pic14/gen.c:2316:resultRemat *{*
                      02309 ;;; /home/sdcc-builder/build/sdcc-build/orig/sdcc/src/pic14/gen.c:2316:resultRemat *{*
                      02310 ;;; /home/sdcc-builder/build/sdcc-build/orig/sdcc/src/pic14/gen.c:7120:genCast *{*
                      02311 ;; ***  genCast  7121
                      02312 ;;      613
                      02313 ;;      aopForRemat 392
                      02314 ;;      418: rname ___str_5, val 0, const = 0
                      02315 ;;      694 register type nRegs=3
                      02316 ;;      833: aopGet AOP_PCODE type PO_IMMEDIATE
                      02317 ;;      ___str_5
                      02318 ;;      line = 7129 result AOP_REG=r0x1054, size=3, left -=-, size=0, right AOP_PCODE=___str_5, size=2
                      02319 ;; ***  genCast  7174
                      02320 ;;; /home/sdcc-builder/build/sdcc-build/orig/sdcc/src/pic14/gen.c:1343:mov2w_op *{*
                      02321 ;; >>> /home/sdcc-builder/build/sdcc-build/orig/sdcc/src/pic14/gen.c:1361:mov2w_op
                      02322         .line   56; "main.c"    printf("\n\n");
0246   30??           02323         MOVLW   high (___str_5 + 0)
                      02324 ;; >>> /home/sdcc-builder/build/sdcc-build/orig/sdcc/src/pic14/gen.c:1393:movwf
                      02325 ;;      1109 rIdx = r0x1055 
0247   00??           02326         MOVWF   r0x11A1
                      02327 ;;; /home/sdcc-builder/build/sdcc-build/orig/sdcc/src/pic14/gen.c:1343:mov2w_op *{*
                      02328 ;; >>> /home/sdcc-builder/build/sdcc-build/orig/sdcc/src/pic14/gen.c:1361:mov2w_op
0248   30??           02329         MOVLW   (___str_5 + 0)
                      02330 ;; >>> /home/sdcc-builder/build/sdcc-build/orig/sdcc/src/pic14/gen.c:1393:movwf
                      02331 ;;      1109 rIdx = r0x1054 
0249   00??           02332         MOVWF   r0x11A0
                      02333 ;; >>> /home/sdcc-builder/build/sdcc-build/orig/sdcc/src/pic14/gen.c:7234:genCast
024A   3080           02334         MOVLW   0x80
                      02335 ;; >>> /home/sdcc-builder/build/sdcc-build/orig/sdcc/src/pic14/gen.c:1393:movwf
                      02336 ;;      1109 rIdx = r0x1056 
024B   00??           02337         MOVWF   r0x11A2
                      02338 ;;; /home/sdcc-builder/build/sdcc-build/orig/sdcc/src/pic14/gen.c:2316:resultRemat *{*
                      02339 ;;; /home/sdcc-builder/build/sdcc-build/orig/sdcc/src/pic14/gen.c:1928:genIpush *{*
                      02340 ;; ***  genIpush  1930 - WARNING no code generated
                      02341 ;;; /home/sdcc-builder/build/sdcc-build/orig/sdcc/src/pic14/gen.c:2316:resultRemat *{*
                      02342 ;;; /home/sdcc-builder/build/sdcc-build/orig/sdcc/src/pic14/gen.c:2086:genCall *{*
                      02343 ;; ***  genCall  2088
                      02344 ;;; /home/sdcc-builder/build/sdcc-build/orig/sdcc/src/pic14/gen.c:1801:saveRegisters *{*
                      02345 ;; ***  saveRegisters  1803
                      02346 ;; >>> /home/sdcc-builder/build/sdcc-build/orig/sdcc/src/pic14/gen.c:2173:genCall
024C   ???? ????      02347         PAGESEL _printf
                      02348 ;; >>> /home/sdcc-builder/build/sdcc-build/orig/sdcc/src/pic14/gen.c:2175:genCall
024E   2???           02349         CALL    _printf
                      02350 ;; >>> /home/sdcc-builder/build/sdcc-build/orig/sdcc/src/pic14/gen.c:2181:genCall
024F   ???? ????      02351         PAGESEL $
                      02352 ;;; /home/sdcc-builder/build/sdcc-build/orig/sdcc/src/pic14/gen.c:1845:unsaveRegisters *{*
gpasm-1.4.0 #1106 (Oct  6 2014) obj\Debug\mai   2-26-2021  01:02:42         PAGE 46


LOC    OBJECT CODE    LINE  SOURCE TEXT
  VALUE

                      02353 ;; ***  unsaveRegisters  1847
                      02354 ;;; /home/sdcc-builder/build/sdcc-build/orig/sdcc/src/pic14/gen.c:2316:resultRemat *{*
                      02355 ;;; /home/sdcc-builder/build/sdcc-build/orig/sdcc/src/pic14/gen.c:2760:genLabel *{*
                      02356 ;; ***  genLabel  2763
                      02357 ;;; /home/sdcc-builder/build/sdcc-build/orig/sdcc/src/pic14/gen.c:2316:resultRemat *{*
                      02358 ;; ***  genPlus  611
                      02359 ;;; /home/sdcc-builder/build/sdcc-build/orig/sdcc/src/pic14/genarith.c:612:genPlus *{*
                      02360 ;;      694 register type nRegs=2
                      02361 ;;      575
                      02362 ;;      line = 618 result AOP_REG=r0x1052, size=2, left AOP_REG=r0x1052, size=2, right AOP_LIT=0x02, siz
                            e=1
                      02363 ;;; /home/sdcc-builder/build/sdcc-build/orig/sdcc/src/pic14/genarith.c:142:genPlusIncr *{*
                      02364 ;; ***  genPlusIncr  144
                      02365 ;;      result AOP_REG, left AOP_REG, right AOP_LIT
                      02366 ;;      genPlusIncr  156
                      02367 ;;      genPlusIncr  180
                      02368 ;;      adding lit to something. size 2
                      02369 ;;; /home/sdcc-builder/build/sdcc-build/orig/sdcc/src/pic14/genarith.c:269:genAddLit *{*
                      02370 ;; ***  genAddLit  270
                      02371 ;; hi = 0       genAddLit  328
                      02372 ;; >>> /home/sdcc-builder/build/sdcc-build/orig/sdcc/src/pic14/genarith.c:344:genAddLit
0251                  02373 _00137_DS_
                      02374         .line   51; "main.c"    for (f=0;f<c;f++)
0251   3002           02375         MOVLW   0x02
                      02376 ;; >>> /home/sdcc-builder/build/sdcc-build/orig/sdcc/src/pic14/genarith.c:345:genAddLit
                      02377 ;;      1109 rIdx = r0x1052 
0252   ???? ????      02378         BANKSEL r0x119E
0254   07??           02379         ADDWF   r0x119E,F
                      02380 ;; >>> /home/sdcc-builder/build/sdcc-build/orig/sdcc/src/pic14/genarith.c:346:genAddLit
0255   1803           02381         BTFSC   STATUS,0
                      02382 ;; >>> /home/sdcc-builder/build/sdcc-build/orig/sdcc/src/pic14/genarith.c:347:genAddLit
                      02383 ;;      1109 rIdx = r0x1053 
0256   0A??           02384         INCF    r0x119F,F
                      02385 ;; ***  addSign  861
                      02386 ;;; /home/sdcc-builder/build/sdcc-build/orig/sdcc/src/pic14/genarith.c:862:addSign *{*
                      02387 ;;; /home/sdcc-builder/build/sdcc-build/orig/sdcc/src/pic14/gen.c:2316:resultRemat *{*
                      02388 ;; ***  genPlus  611
                      02389 ;;; /home/sdcc-builder/build/sdcc-build/orig/sdcc/src/pic14/genarith.c:612:genPlus *{*
                      02390 ;;      694 register type nRegs=2
                      02391 ;;      575
                      02392 ;;      line = 618 result AOP_REG=r0x1050, size=2, left AOP_REG=r0x1050, size=2, right AOP_LIT=0x01, siz
                            e=1
                      02393 ;;; /home/sdcc-builder/build/sdcc-build/orig/sdcc/src/pic14/genarith.c:142:genPlusIncr *{*
                      02394 ;; ***  genPlusIncr  144
                      02395 ;;      result AOP_REG, left AOP_REG, right AOP_LIT
                      02396 ;;      genPlusIncr  156
                      02397 ;; >>> /home/sdcc-builder/build/sdcc-build/orig/sdcc/src/pic14/genarith.c:168:genPlusIncr
                      02398 ;;      1109 rIdx = r0x1050 
0257   0A??           02399         INCF    r0x119C,F
                      02400 ;; >>> /home/sdcc-builder/build/sdcc-build/orig/sdcc/src/pic14/genarith.c:172:genPlusIncr
0258   1903           02401         BTFSC   STATUS,2
                      02402 ;; >>> /home/sdcc-builder/build/sdcc-build/orig/sdcc/src/pic14/genarith.c:173:genPlusIncr
                      02403 ;;      1109 rIdx = r0x1051 
gpasm-1.4.0 #1106 (Oct  6 2014) obj\Debug\mai   2-26-2021  01:02:42         PAGE 47


LOC    OBJECT CODE    LINE  SOURCE TEXT
  VALUE

0259   0A??           02404         INCF    r0x119D,F
                      02405 ;;; /home/sdcc-builder/build/sdcc-build/orig/sdcc/src/pic14/gen.c:2316:resultRemat *{*
                      02406 ;;; /home/sdcc-builder/build/sdcc-build/orig/sdcc/src/pic14/gen.c:2778:genGoto *{*
                      02407 ;; >>> /home/sdcc-builder/build/sdcc-build/orig/sdcc/src/pic14/gen.c:2780:genGoto
                      02408 ;; ***  popGetLabel  key=32, label offset 4
025A   2???           02409         GOTO    _00136_DS_
                      02410 ;;; /home/sdcc-builder/build/sdcc-build/orig/sdcc/src/pic14/gen.c:2316:resultRemat *{*
                      02411 ;;; /home/sdcc-builder/build/sdcc-build/orig/sdcc/src/pic14/gen.c:2760:genLabel *{*
                      02412 ;; ***  genLabel  2763
                      02413 ;;; /home/sdcc-builder/build/sdcc-build/orig/sdcc/src/pic14/gen.c:2316:resultRemat *{*
                      02414 ;; ***  genPlus  611
                      02415 ;;; /home/sdcc-builder/build/sdcc-build/orig/sdcc/src/pic14/genarith.c:612:genPlus *{*
                      02416 ;;      694 register type nRegs=2
                      02417 ;;      575
                      02418 ;;      line = 618 result AOP_REG=r0x104C, size=2, left AOP_REG=r0x104C, size=2, right AOP_LIT=0x14, siz
                            e=1
                      02419 ;;; /home/sdcc-builder/build/sdcc-build/orig/sdcc/src/pic14/genarith.c:142:genPlusIncr *{*
                      02420 ;; ***  genPlusIncr  144
                      02421 ;;      result AOP_REG, left AOP_REG, right AOP_LIT
                      02422 ;;      genPlusIncr  156
                      02423 ;;      adding lit to something. size 2
                      02424 ;;; /home/sdcc-builder/build/sdcc-build/orig/sdcc/src/pic14/genarith.c:269:genAddLit *{*
                      02425 ;; ***  genAddLit  270
                      02426 ;; hi = 0       genAddLit  328
                      02427 ;; >>> /home/sdcc-builder/build/sdcc-build/orig/sdcc/src/pic14/genarith.c:344:genAddLit
025B                  02428 _00140_DS_
                      02429         .line   49; "main.c"    for(k=0;k<r;k++)
025B   3014           02430         MOVLW   0x14
                      02431 ;; >>> /home/sdcc-builder/build/sdcc-build/orig/sdcc/src/pic14/genarith.c:345:genAddLit
                      02432 ;;      1109 rIdx = r0x104C 
025C   ???? ????      02433         BANKSEL r0x1198
025E   07??           02434         ADDWF   r0x1198,F
                      02435 ;; >>> /home/sdcc-builder/build/sdcc-build/orig/sdcc/src/pic14/genarith.c:346:genAddLit
025F   1803           02436         BTFSC   STATUS,0
                      02437 ;; >>> /home/sdcc-builder/build/sdcc-build/orig/sdcc/src/pic14/genarith.c:347:genAddLit
                      02438 ;;      1109 rIdx = r0x104D 
0260   0A??           02439         INCF    r0x1199,F
                      02440 ;; ***  addSign  861
                      02441 ;;; /home/sdcc-builder/build/sdcc-build/orig/sdcc/src/pic14/genarith.c:862:addSign *{*
                      02442 ;;; /home/sdcc-builder/build/sdcc-build/orig/sdcc/src/pic14/gen.c:2316:resultRemat *{*
                      02443 ;; ***  genPlus  611
                      02444 ;;; /home/sdcc-builder/build/sdcc-build/orig/sdcc/src/pic14/genarith.c:612:genPlus *{*
                      02445 ;;      694 register type nRegs=2
                      02446 ;;      575
                      02447 ;;      line = 618 result AOP_REG=r0x104A, size=2, left AOP_REG=r0x104A, size=2, right AOP_LIT=0x01, siz
                            e=1
                      02448 ;;; /home/sdcc-builder/build/sdcc-build/orig/sdcc/src/pic14/genarith.c:142:genPlusIncr *{*
                      02449 ;; ***  genPlusIncr  144
                      02450 ;;      result AOP_REG, left AOP_REG, right AOP_LIT
                      02451 ;;      genPlusIncr  156
                      02452 ;; >>> /home/sdcc-builder/build/sdcc-build/orig/sdcc/src/pic14/genarith.c:168:genPlusIncr
                      02453 ;;      1109 rIdx = r0x104A 
0261   0A??           02454         INCF    r0x1196,F
gpasm-1.4.0 #1106 (Oct  6 2014) obj\Debug\mai   2-26-2021  01:02:42         PAGE 48


LOC    OBJECT CODE    LINE  SOURCE TEXT
  VALUE

                      02455 ;; >>> /home/sdcc-builder/build/sdcc-build/orig/sdcc/src/pic14/genarith.c:172:genPlusIncr
0262   1903           02456         BTFSC   STATUS,2
                      02457 ;; >>> /home/sdcc-builder/build/sdcc-build/orig/sdcc/src/pic14/genarith.c:173:genPlusIncr
                      02458 ;;      1109 rIdx = r0x104B 
0263   0A??           02459         INCF    r0x1197,F
                      02460 ;;; /home/sdcc-builder/build/sdcc-build/orig/sdcc/src/pic14/gen.c:2316:resultRemat *{*
                      02461 ;;; /home/sdcc-builder/build/sdcc-build/orig/sdcc/src/pic14/gen.c:2778:genGoto *{*
                      02462 ;; >>> /home/sdcc-builder/build/sdcc-build/orig/sdcc/src/pic14/gen.c:2780:genGoto
                      02463 ;; ***  popGetLabel  key=35, label offset 4
0264   2???           02464         GOTO    _00139_DS_
                      02465 ;;; /home/sdcc-builder/build/sdcc-build/orig/sdcc/src/pic14/gen.c:2316:resultRemat *{*
                      02466 ;;; /home/sdcc-builder/build/sdcc-build/orig/sdcc/src/pic14/gen.c:2760:genLabel *{*
                      02467 ;; ***  genLabel  2763
                      02468 ;;; /home/sdcc-builder/build/sdcc-build/orig/sdcc/src/pic14/gen.c:2316:resultRemat *{*
                      02469 ;;; /home/sdcc-builder/build/sdcc-build/orig/sdcc/src/pic14/gen.c:2683:genRet *{*
                      02470 ;; ***  genRet  2685
                      02471 ;;; /home/sdcc-builder/build/sdcc-build/orig/sdcc/src/pic14/gen.c:1343:mov2w_op *{*
                      02472 ;; >>> /home/sdcc-builder/build/sdcc-build/orig/sdcc/src/pic14/gen.c:1361:mov2w_op
0265                  02473 _00116_DS_
                      02474         .line   62; "main.c"    return 0;
0265   3000           02475         MOVLW   0x00
                      02476 ;; >>> /home/sdcc-builder/build/sdcc-build/orig/sdcc/src/pic14/gen.c:1416:pass_argument
                      02477 ;; ***  popRegFromIdx,1042  , rIdx=0x7f
0266   00??           02478         MOVWF   STK00
                      02479 ;;; /home/sdcc-builder/build/sdcc-build/orig/sdcc/src/pic14/gen.c:1343:mov2w_op *{*
                      02480 ;; >>> /home/sdcc-builder/build/sdcc-build/orig/sdcc/src/pic14/gen.c:1361:mov2w_op
0267   3000           02481         MOVLW   0x00
                      02482 ;;; /home/sdcc-builder/build/sdcc-build/orig/sdcc/src/pic14/gen.c:2316:resultRemat *{*
                      02483 ;;; /home/sdcc-builder/build/sdcc-build/orig/sdcc/src/pic14/gen.c:2760:genLabel *{*
                      02484 ;; ***  genLabel  2763
                      02485 ;;; /home/sdcc-builder/build/sdcc-build/orig/sdcc/src/pic14/gen.c:2316:resultRemat *{*
                      02486 ;;; /home/sdcc-builder/build/sdcc-build/orig/sdcc/src/pic14/gen.c:2528:genEndFunction *{*
                      02487 ;; ***  genEndFunction  2530
0268   0008           02488         RETURN  
                      02489 ; exit point of _main
                      02490 
                      02491 
                      02492 ;       code size estimation:
                      02493 ;         395+  111 =   506 instructions ( 1234 byte)
                      02494 
                      02495         end
gpasm-1.4.0 #1106 (Oct  6 2014) obj\Debug\mai   2-26-2021  01:02:42         PAGE 49


SYMBOL TABLE
  LABEL                             VALUE

ACKDT                             00000005
ACKEN                             00000004
ACKSTAT                           00000006
ADCON0                            0000001F
ADCON1                            0000009F
ADCS0                             00000006
ADCS1                             00000007
ADCS2                             00000006
ADDEN                             00000003
ADFM                              00000007
ADIE                              00000006
ADIF                              00000006
ADON                              00000000
ADRESH                            0000001E
ADRESL                            0000009E
BCLIE                             00000003
BCLIF                             00000003
BF                                00000000
BRGH                              00000002
C                                 00000000
C1INV                             00000004
C1OUT                             00000006
C2INV                             00000005
C2OUT                             00000007
CCP1CON                           00000017
CCP1IE                            00000002
CCP1IF                            00000002
CCP1M0                            00000000
CCP1M1                            00000001
CCP1M2                            00000002
CCP1M3                            00000003
CCP1X                             00000005
CCP1Y                             00000004
CCP2CON                           0000001D
CCP2IE                            00000000
CCP2IF                            00000000
CCP2M0                            00000000
CCP2M1                            00000001
CCP2M2                            00000002
CCP2M3                            00000003
CCP2X                             00000005
CCP2Y                             00000004
CCPR1                             00000015
CCPR1H                            00000016
CCPR1L                            00000015
CCPR2                             0000001B
CCPR2H                            0000001C
CCPR2L                            0000001B
CHS0                              00000003
CHS1                              00000004
CHS2                              00000005
CIS                               00000003
CKE                               00000006
gpasm-1.4.0 #1106 (Oct  6 2014) obj\Debug\mai   2-26-2021  01:02:42         PAGE 50


SYMBOL TABLE
  LABEL                             VALUE 

CKP                               00000004
CM0                               00000000
CM1                               00000001
CM2                               00000002
CMCON                             0000009C
CMIE                              00000006
CMIF                              00000006
CREN                              00000004
CSRC                              00000007
CVR0                              00000000
CVR1                              00000001
CVR2                              00000002
CVR3                              00000003
CVRCON                            0000009D
CVREN                             00000007
CVROE                             00000006
CVRR                              00000005
D                                 00000005
DATA_ADDRESS                      00000005
DC                                00000001
D_A                               00000005
D_NOT_A                           00000005
EEADR                             0000010D
EEADRH                            0000010F
EECON1                            0000018C
EECON2                            0000018D
EEDATA                            0000010C
EEDATH                            0000010E
EEIE                              00000004
EEIF                              00000004
EEPGD                             00000007
F                                 00000001
FERR                              00000002
FSR                               00000004
GCEN                              00000007
GIE                               00000007
GO                                00000002
GO_DONE                           00000002
GO_NOT_DONE                       00000002
I2C_DATA                          00000005
I2C_READ                          00000002
I2C_START                         00000003
I2C_STOP                          00000004
IBF                               00000007
IBOV                              00000005
INDF                              00000000
INTCON                            0000000B
INTE                              00000004
INTEDG                            00000006
INTF                              00000001
IRP                               00000007
NOT_A                             00000005
NOT_ADDRESS                       00000005
gpasm-1.4.0 #1106 (Oct  6 2014) obj\Debug\mai   2-26-2021  01:02:42         PAGE 51


SYMBOL TABLE
  LABEL                             VALUE 

NOT_BO                            00000000
NOT_BOR                           00000000
NOT_DONE                          00000002
NOT_PD                            00000003
NOT_POR                           00000001
NOT_RBPU                          00000007
NOT_RC8                           00000006
NOT_T1SYNC                        00000002
NOT_TO                            00000004
NOT_TX8                           00000006
NOT_W                             00000002
NOT_WRITE                         00000002
OBF                               00000006
OERR                              00000001
OPTION_REG                        00000081
P                                 00000004
PCFG0                             00000000
PCFG1                             00000001
PCFG2                             00000002
PCFG3                             00000003
PCL                               00000002
PCLATH                            0000000A
PCON                              0000008E
PEIE                              00000006
PEN                               00000002
PIE1                              0000008C
PIE2                              0000008D
PIR1                              0000000C
PIR2                              0000000D
PORTA                             00000005
PORTB                             00000006
PORTC                             00000007
PORTD                             00000008
PORTE                             00000009
PR2                               00000092
PS0                               00000000
PS1                               00000001
PS2                               00000002
PSA                               00000003
PSAVE                             00000070
PSPIE                             00000007
PSPIF                             00000007
PSPMODE                           00000004
R                                 00000002
RA0                               00000000
RA1                               00000001
RA2                               00000002
RA3                               00000003
RA4                               00000004
RA5                               00000005
RB0                               00000000
RB1                               00000001
RB2                               00000002
gpasm-1.4.0 #1106 (Oct  6 2014) obj\Debug\mai   2-26-2021  01:02:42         PAGE 52


SYMBOL TABLE
  LABEL                             VALUE 

RB3                               00000003
RB4                               00000004
RB5                               00000005
RB6                               00000006
RB7                               00000007
RBIE                              00000003
RBIF                              00000000
RC0                               00000000
RC1                               00000001
RC2                               00000002
RC3                               00000003
RC4                               00000004
RC5                               00000005
RC6                               00000006
RC7                               00000007
RC8_9                             00000006
RC9                               00000006
RCD8                              00000000
RCEN                              00000003
RCIE                              00000005
RCIF                              00000005
RCREG                             0000001A
RCSTA                             00000018
RD                                00000000
RD0                               00000000
RD1                               00000001
RD2                               00000002
RD3                               00000003
RD4                               00000004
RD5                               00000005
RD6                               00000006
RD7                               00000007
RE0                               00000000
RE1                               00000001
RE2                               00000002
READ_WRITE                        00000002
RP0                               00000005
RP1                               00000006
RSEN                              00000001
RX9                               00000006
RX9D                              00000000
R_NOT_W                           00000002
R_W                               00000002
S                                 00000003
SEN                               00000000
SMP                               00000007
SPBRG                             00000099
SPEN                              00000007
SREN                              00000005
SSAVE                             00000071
SSPADD                            00000093
SSPBUF                            00000013
SSPCON                            00000014
gpasm-1.4.0 #1106 (Oct  6 2014) obj\Debug\mai   2-26-2021  01:02:42         PAGE 53


SYMBOL TABLE
  LABEL                             VALUE 

SSPCON2                           00000091
SSPEN                             00000005
SSPIE                             00000003
SSPIF                             00000003
SSPM0                             00000000
SSPM1                             00000001
SSPM2                             00000002
SSPM3                             00000003
SSPOV                             00000006
SSPSTAT                           00000094
STATUS                            00000003
STK00                             0000007F
STK01                             0000007E
STK02                             0000007D
STK03                             0000007C
STK04                             0000007B
STK05                             0000007A
STK06                             00000079
STK07                             00000078
STK08                             00000077
STK09                             00000076
STK10                             00000075
STK11                             00000074
STK12                             00000073
SYNC                              00000004
T0CS                              00000005
T0IE                              00000005
T0IF                              00000002
T0SE                              00000004
T1CKPS0                           00000004
T1CKPS1                           00000005
T1CON                             00000010
T1INSYNC                          00000002
T1OSCEN                           00000003
T1SYNC                            00000002
T2CKPS0                           00000000
T2CKPS1                           00000001
T2CON                             00000012
TMR0                              00000001
TMR0IE                            00000005
TMR0IF                            00000002
TMR1                              0000000E
TMR1CS                            00000001
TMR1H                             0000000F
TMR1IE                            00000000
TMR1IF                            00000000
TMR1L                             0000000E
TMR1ON                            00000000
TMR2                              00000011
TMR2IE                            00000001
TMR2IF                            00000001
TMR2ON                            00000002
TOUTPS0                           00000003
gpasm-1.4.0 #1106 (Oct  6 2014) obj\Debug\mai   2-26-2021  01:02:42         PAGE 54


SYMBOL TABLE
  LABEL                             VALUE 

TOUTPS1                           00000004
TOUTPS2                           00000005
TOUTPS3                           00000006
TRISA                             00000085
TRISA0                            00000000
TRISA1                            00000001
TRISA2                            00000002
TRISA3                            00000003
TRISA4                            00000004
TRISA5                            00000005
TRISB                             00000086
TRISB0                            00000000
TRISB1                            00000001
TRISB2                            00000002
TRISB3                            00000003
TRISB4                            00000004
TRISB5                            00000005
TRISB6                            00000006
TRISB7                            00000007
TRISC                             00000087
TRISC0                            00000000
TRISC1                            00000001
TRISC2                            00000002
TRISC3                            00000003
TRISC4                            00000004
TRISC5                            00000005
TRISC6                            00000006
TRISC7                            00000007
TRISD                             00000088
TRISD0                            00000000
TRISD1                            00000001
TRISD2                            00000002
TRISD3                            00000003
TRISD4                            00000004
TRISD5                            00000005
TRISD6                            00000006
TRISD7                            00000007
TRISE                             00000089
TRISE0                            00000000
TRISE1                            00000001
TRISE2                            00000002
TRMT                              00000001
TX8_9                             00000006
TX9                               00000006
TX9D                              00000000
TXD8                              00000000
TXEN                              00000005
TXIE                              00000004
TXIF                              00000004
TXREG                             00000019
TXSTA                             00000098
UA                                00000001
W                                 00000000
gpasm-1.4.0 #1106 (Oct  6 2014) obj\Debug\mai   2-26-2021  01:02:42         PAGE 55


SYMBOL TABLE
  LABEL                             VALUE 

WCOL                              00000007
WR                                00000001
WREN                              00000002
WRERR                             00000003
WSAVE                             00000072
Z                                 00000002
_00001_DS_                        00000087
_00106_DS_                        00000067
_00110_DS_                        0000011D
_00112_DS_                        000001C2
_00116_DS_                        00000265
_00118_DS_                        00000038
_00121_DS_                        00000011
_00122_DS_                        00000061
_00124_DS_                        000000B2
_00125_DS_                        00000109
_00127_DS_                        0000008D
_00128_DS_                        00000113
_00130_DS_                        0000014C
_00133_DS_                        00000125
_00134_DS_                        000001B4
_00136_DS_                        000001FA
_00137_DS_                        00000251
_00139_DS_                        000001D5
_00140_DS_                        0000025B
_00205_DS_                        00000025
_00206_DS_                        0000004C
_00207_DS_                        000000A1
_00208_DS_                        000000C6
_00209_DS_                        00000139
_00210_DS_                        00000160
_00211_DS_                        000001E9
_00212_DS_                        0000020E
_BODEN_OFF                        00003FBF
_BODEN_ON                         00003FFF
_BOREN_OFF                        00003FBF
_BOREN_ON                         00003FFF
_CONFIG                           00002007
_CPD_OFF                          00003FFF
_CPD_ON                           00003EFF
_CP_ALL                           00001FFF
_CP_OFF                           00003FFF
_CP_ON                            00001FFF
_DEBUG_OFF                        00003FFF
_DEBUG_ON                         000037FF
_DEVID1                           00002006
_FOSC_EXTRC                       00003FFF
_FOSC_HS                          00003FFE
_FOSC_LP                          00003FFC
_FOSC_XT                          00003FFD
_HS_OSC                           00003FFE
_IDLOC0                           00002000
_IDLOC1                           00002001
gpasm-1.4.0 #1106 (Oct  6 2014) obj\Debug\mai   2-26-2021  01:02:42         PAGE 56


SYMBOL TABLE
  LABEL                             VALUE 

_IDLOC2                           00002002
_IDLOC3                           00002003
_LP_OSC                           00003FFC
_LVP_OFF                          00003F7F
_LVP_ON                           00003FFF
_PWRTE_OFF                        00003FFF
_PWRTE_ON                         00003FF7
_RC_OSC                           00003FFF
_WDTE_OFF                         00003FFB
_WDTE_ON                          00003FFF
_WDT_OFF                          00003FFB
_WDT_ON                           00003FFF
_WRT_1FOURTH                      00003BFF
_WRT_256                          00003DFF
_WRT_HALF                         000039FF
_WRT_OFF                          00003FFF
_XT_OSC                           00003FFD
__16F877A                         00000001
__CODE_END                        00001FFF
__CODE_START                      00000000
__COMMON_RAM_END                  0000007F
__COMMON_RAM_START                00000070
__EEPROM_END                      000021FF
__EEPROM_START                    00002100
__VECTOR_INT                      00000004
__VECTOR_RESET                    00000000
___str_0                          00000000
___str_1                          00000000
___str_2                          00000000
___str_3                          00000000
___str_4                          00000000
___str_5                          00000000
___str_6                          00000000
__itoa                            00000000
__ltoa                            00000000
__print_format                    00000000
__sdcc_gsinit_startup             00000000
__uitoa                           00000000
__ultoa                           00000000
_abs                              00000000
_atof                             00000000
_atoi                             00000000
_atol                             00000000
_calloc                           00000000
_code_main_000B                   0000000B
_code_main_0032                   00000032
_code_main_0059                   00000059
_code_main_0072                   00000072
_code_main_00F2                   000000F2
_code_main_0107                   00000107
_code_main_01CD                   000001CD
_code_main_023A                   0000023A
_code_main_024F                   0000024F
gpasm-1.4.0 #1106 (Oct  6 2014) obj\Debug\mai   2-26-2021  01:02:42         PAGE 57


SYMBOL TABLE
  LABEL                             VALUE 

_free                             00000000
_getchar                          00000000
_gets                             00000000
_labs                             00000000
_main                             00000000
_main_c_1_28                      00000019
_main_matrix_1_28                 0000001B
_main_r_1_28                      00000017
_main_transpose_1_28              000000E3
_malloc                           00000000
_printf                           00000000
_printf_small                     00000000
_putchar                          00000000
_puts                             00000000
_rand                             00000000
_realloc                          00000000
_sprintf                          00000000
_srand                            00000000
_vprintf                          00000000
_vsprintf                         00000000
r0x1194                           00000001
r0x1195                           00000000
r0x1196                           00000002
r0x1197                           00000003
r0x1198                           00000004
r0x1199                           00000005
r0x119A                           00000006
r0x119B                           00000007
r0x119C                           00000008
r0x119D                           00000009
r0x119E                           0000000A
r0x119F                           0000000B
r0x11A0                           0000000C
r0x11A1                           0000000D
r0x11A2                           0000000E
r0x11A3                           0000000F
r0x11A4                           00000010
r0x11A5                           00000011
r0x11A6                           00000012
r0x11A7                           00000013
r0x11A8                           00000014
r0x11A9                           00000015
r0x11AA                           00000016

Errors   :     0
Warnings :     0 reported,     0 suppressed
Messages :     0 reported,     0 suppressed

